LX51 LINKER/LOCATER V4.66.66.0                                                          08/04/2020  11:17:01  PAGE 1


LX51 LINKER/LOCATER V4.66.66.0, INVOKED BY:
F:\KEIL\C51\BIN\LX51.EXE .\hex\main.obj, .\hex\delay.obj, .\hex\system_clock.obj, .\hex\uart.obj, .\hex\interrupt.obj, .
>> \hex\debug.obj, .\hex\ts_api.obj, .\TS_Lib\Sources\ts_service.LIB, .\hex\STARTUP.obj TO .\hex\ca51f3 PRINT (.\lst\ca5
>> 1f3.map) REMOVEUNUSED CLASSES (XDATA (X:0X0-X:0XFFF), HDATA (X:0X0-X:0XFFF), CODE (C:0X0-C:0X3FFF), CONST (C:0X0-C:0X
>> 3FFF), ECODE (C:0X0-C:0X3FFF), HCONST (C:0X0-C:0X3FFF))


CPU MODE:     8051 MODE
MEMORY MODEL: SMALL


INPUT MODULES INCLUDED:
  .\hex\main.obj (MAIN)
         COMMENT TYPE 0: C51 V9.56.0.0
  .\hex\delay.obj (DELAY)
         COMMENT TYPE 0: C51 V9.56.0.0
  .\hex\system_clock.obj (SYSTEM_CLOCK)
         COMMENT TYPE 0: C51 V9.56.0.0
  .\hex\uart.obj (UART)
         COMMENT TYPE 0: C51 V9.56.0.0
  .\hex\interrupt.obj (INTERRUPT)
         COMMENT TYPE 0: C51 V9.56.0.0
  .\hex\debug.obj (DEBUG)
         COMMENT TYPE 0: C51 V9.56.0.0
  .\hex\ts_api.obj (TS_API)
         COMMENT TYPE 0: C51 V9.56.0.0
  .\TS_Lib\Sources\ts_service.LIB (TS_SEVICE)
         COMMENT TYPE 0: C51 V9.51
  .\hex\STARTUP.obj (?C_STARTUP)
         COMMENT TYPE 1: A51 / ASM51 Assembler
  F:\KEIL\C51\LIB\C51S.LIB (?C_INIT)
         COMMENT TYPE 1: A51 / ASM51 Assembler
  F:\KEIL\C51\LIB\C51S.LIB (?C?CLDOPTR)
         COMMENT TYPE 1: A51 / ASM51 Assembler
  F:\KEIL\C51\LIB\C51S.LIB (?C?CSTPTR)
         COMMENT TYPE 1: A51 / ASM51 Assembler
  F:\KEIL\C51\LIB\C51S.LIB (?C?CSTOPTR)
         COMMENT TYPE 1: A51 / ASM51 Assembler
  F:\KEIL\C51\LIB\C51S.LIB (?C?IMUL)
         COMMENT TYPE 1: A51 / ASM51 Assembler
  F:\KEIL\C51\LIB\C51S.LIB (?C?UIDIV)
         COMMENT TYPE 1: A51 / ASM51 Assembler
  F:\KEIL\C51\LIB\C51S.LIB (?C?SIDIV)
         COMMENT TYPE 1: A51 / ASM51 Assembler
  F:\KEIL\C51\LIB\C51S.LIB (?C?IILDX)
         COMMENT TYPE 1: A51 / ASM51 Assembler
  F:\KEIL\C51\LIB\C51S.LIB (?C?ULDIV)
         COMMENT TYPE 1: A51 / ASM51 Assembler
  F:\KEIL\C51\LIB\C51S.LIB (?C?LSTXDATA)
         COMMENT TYPE 1: A51 / ASM51 Assembler
  F:\KEIL\C51\LIB\C51S.LIB (?C?OFFXADD)
         COMMENT TYPE 1: A51 / ASM51 Assembler
  F:\KEIL\C51\LIB\C51S.LIB (?C?PLDCODE)
         COMMENT TYPE 1: A51 / ASM51 Assembler
  F:\KEIL\C51\LIB\C51S.LIB (?C?LIMUL)
         COMMENT TYPE 1: A51 / ASM51 Assembler


ACTIVE MEMORY CLASSES OF MODULE:  .\hex\ca51f3 (MAIN)

BASE        START       END         USED      MEMORY CLASS
==========================================================
X:000000H   X:000000H   X:000FFFH   00008AH   XDATA
X:000000H   X:000000H   X:000FFFH             HDATA
C:000000H   C:000000H   C:003FFFH   000D8AH   CODE
C:000000H   C:000000H   C:003FFFH   000079H   CONST
LX51 LINKER/LOCATER V4.66.66.0                                                        08/04/2020  11:17:01  PAGE 2


C:000000H   C:000000H   C:003FFFH             ECODE
B00:0000H   C:000000H   C:003FFFH             HCONST
I:000000H   I:000000H   I:00007FH   00002EH   DATA
I:000020H.0 I:000020H.0 I:00002FH.7 000000H.5 BIT
I:000000H   I:000000H   I:0000FFH   000006H   IDATA


MEMORY MAP OF MODULE:  .\hex\ca51f3 (MAIN)


START     STOP      LENGTH    ALIGN  RELOC    MEMORY CLASS   SEGMENT NAME
=========================================================================

* * * * * * * * * * *   D A T A   M E M O R Y   * * * * * * * * * * * * *
000000H   000007H   000008H   ---    AT..     DATA           "REG BANK 0"
000008H   00001BH   000014H   BYTE   UNIT     DATA           _DATA_GROUP_
00001CH.0 00001FH.7 000004H.0 ---    ---      **GAP**
000020H.0 000020H.2 000000H.3 BIT    UNIT     BIT            ?BI?TS_API
000020H.3 000020H.3 000000H.1 BIT    UNIT     BIT            ?BI?DEBUG
000020H.4 000020H.4 000000H.1 BIT    UNIT     BIT            _BIT_GROUP_
000020H.5 000020H   000000H.3 ---    ---      **GAP**
000021H   00002DH   00000DH   BYTE   UNIT     DATA           ?DT?TS_API
00002EH   000032H   000005H   BYTE   UNIT     DATA           ?DT?DEBUG
000033H   000037H   000005H   BYTE   UNIT     IDATA          ?ID?TS_API
000038H   000038H   000001H   BYTE   UNIT     IDATA          ?STACK

* * * * * * * * * * *   C O D E   M E M O R Y   * * * * * * * * * * * * *
000000H   000002H   000003H   ---    OFFS..   CODE           ?CO??C_STARTUP?0
000003H   000042H   000040H   BYTE   UNIT     CODE           ?PR?INT6_ISR?INTERRUPT
000043H   000045H   000003H   BYTE   OFFS..   CODE           ?INTERRUPT?00043
000046H   000058H   000013H   BYTE   UNIT     CODE           ?PR?_TS_AREACONFIRMTIMERSET?TS_SEVICE
000059H   00005AH   000002H   ---    ---      **GAP**
00005BH   00005DH   000003H   BYTE   OFFS..   CODE           ?INTERRUPT?0005B
00005EH   000069H   00000CH   BYTE   UNIT     CODE           ?C_INITSEG
00006AH   00006AH   000001H   ---    ---      **GAP**
00006BH   00006DH   000003H   BYTE   OFFS..   CODE           ?INTERRUPT?0006B
00006EH   0002A0H   000233H   BYTE   UNIT     CODE           ?C?LIB_CODE
0002A1H   000403H   000163H   BYTE   UNIT     CODE           ?PR?TS_RUNINIT?TS_API
000404H   000524H   000121H   BYTE   UNIT     CODE           ?PR?TS_SEVICE
000525H   00062FH   00010BH   BYTE   UNIT     CODE           ?PR?TSKEY_DATADEAL?TS_API
000630H   0006F2H   0000C3H   BYTE   UNIT     CODE           ?PR?TS_DATAFILTERING?TS_API
0006F3H   0007B4H   0000C2H   BYTE   UNIT     CODE           ?PR?TS_API
0007B5H   000868H   0000B4H   BYTE   UNIT     CODE           ?PR?TS_ISR?TS_API
000869H   0008F4H   00008CH   BYTE   UNIT     CODE           ?C_C51STARTUP
0008F5H   00097FH   00008BH   BYTE   UNIT     CODE           ?PR?TS_GETKEY?TS_API
000980H   0009F2H   000073H   BYTE   UNIT     CODE           ?PR?I2C_ISR?DEBUG
0009F3H   000A54H   000062H   BYTE   UNIT     CODE           ?PR?TS_INIT?TS_API
000A55H   000AB3H   00005FH   BYTE   UNIT     CODE           ?PR?_TS_GETDATAAREA?TS_SEVICE
000AB4H   000B0FH   00005CH   BYTE   UNIT     CODE           ?PR?INT8_ISR?INTERRUPT
000B10H   000B62H   000053H   BYTE   UNIT     CODE           ?PR?DEBUG_PARAMLOAD?DEBUG
000B63H   000BACH   00004AH   BYTE   UNIT     CODE           ?PR?TS_SCANSTART?TS_SEVICE
000BADH   000BEBH   00003FH   BYTE   UNIT     CODE           ?PR?INT3_ISR?INTERRUPT
000BECH   000C24H   000039H   BYTE   UNIT     CODE           ?PR?TS_ACTION?TS_API
000C25H   000C53H   00002FH   BYTE   UNIT     CODE           ?PR?TS_IO_INIT?TS_SEVICE
000C54H   000C81H   00002EH   BYTE   UNIT     CODE           ?PR?TS_MS_ISR?TS_API
000C82H   000CAFH   00002EH   BYTE   UNIT     CODE           ?PR?_TS_AREADEVIATEDETECTION?TS_SEVICE
000CB0H   000CDCH   00002DH   BYTE   UNIT     CODE           ?PR?DEBUG_INIT?DEBUG
000CDDH   000D09H   00002DH   BYTE   UNIT     CODE           ?PR?TS_HS_ISR?TS_API
000D0AH   000D2FH   000026H   BYTE   UNIT     CODE           ?PR?_SYS_CLK_SET_PLL?SYSTEM_CLOCK
000D30H   000D51H   000022H   BYTE   UNIT     CODE           ?PR?SYSTEMINIT?MAIN
000D52H   000D71H   000020H   BYTE   UNIT     CODE           ?PR?READ_INNER_TRIM?MAIN
000D72H   000D82H   000011H   BYTE   UNIT     CODE           ?PR?MAIN?MAIN
000D83H   000D8CH   00000AH   BYTE   UNIT     CODE           ?PR?DEBUG
000D8DH   000DC8H   00003CH   BYTE   UNIT     CONST          ?CO?TS_SEVICE
000DC9H   000DE7H   00001FH   BYTE   UNIT     CONST          ?CO?TS_API
LX51 LINKER/LOCATER V4.66.66.0                                                        08/04/2020  11:17:01  PAGE 3


000DE8H   000E05H   00001EH   BYTE   UNIT     CONST          ?CO?DEBUG

* * * * * * * * * * *  X D A T A   M E M O R Y  * * * * * * * * * * * * *
000000H   000039H   00003AH   BYTE   UNIT     XDATA          ?XD?TS_API
00003AH   00003AH   000001H   BYTE   UNIT     XDATA          ?XD?DEBUG
00003BH   007FFFH   007FC5H   ---    ---      **GAP**
008000H   008000H   000001H   BYTE   OFFS..   XDATA          ?XD?MAIN?39
008001H   008001H   000001H   BYTE   OFFS..   XDATA          ?XD?MAIN?44
008002H   008002H   000001H   BYTE   OFFS..   XDATA          ?XD?MAIN?50
008003H   008003H   000001H   BYTE   OFFS..   XDATA          ?XD?MAIN?57
008004H   008004H   000001H   BYTE   OFFS..   XDATA          ?XD?MAIN?65
008005H   008005H   000001H   BYTE   OFFS..   XDATA          ?XD?MAIN?70
008006H   008006H   000001H   BYTE   OFFS..   XDATA          ?XD?MAIN?74
008007H   008007H   000001H   BYTE   OFFS..   XDATA          ?XD?MAIN?78
008008H   008008H   000001H   BYTE   OFFS..   XDATA          ?XD?MAIN?43
008009H   008009H   000001H   BYTE   OFFS..   XDATA          ?XD?MAIN?49
00800AH   00800AH   000001H   BYTE   OFFS..   XDATA          ?XD?MAIN?56
00800BH   00800BH   000001H   BYTE   OFFS..   XDATA          ?XD?MAIN?64
00800CH   00800CH   000001H   BYTE   OFFS..   XDATA          ?XD?MAIN?69
00800DH   00800DH   000001H   BYTE   OFFS..   XDATA          ?XD?MAIN?73
00800EH   00800EH   000001H   BYTE   OFFS..   XDATA          ?XD?MAIN?77
00800FH   00800FH   000001H   BYTE   OFFS..   XDATA          ?XD?MAIN?2
008010H   008010H   000001H   BYTE   OFFS..   XDATA          ?XD?MAIN?48
008011H   008011H   000001H   BYTE   OFFS..   XDATA          ?XD?MAIN?55
008012H   008017H   000006H   ---    ---      **GAP**
008018H   008018H   000001H   BYTE   OFFS..   XDATA          ?XD?MAIN?54
008019H   008019H   000001H   BYTE   OFFS..   XDATA          ?XD?MAIN?63
00801AH   00801AH   000001H   BYTE   OFFS..   XDATA          ?XD?MAIN?68
00801BH   00801BH   000001H   BYTE   OFFS..   XDATA          ?XD?MAIN?72
00801CH   00801CH   000001H   BYTE   OFFS..   XDATA          ?XD?MAIN?76
00801DH   00801DH   000001H   BYTE   OFFS..   XDATA          ?XD?MAIN?1
00801EH   00801EH   000001H   BYTE   OFFS..   XDATA          ?XD?MAIN?3
00801FH   00801FH   000001H   BYTE   OFFS..   XDATA          ?XD?MAIN?4
008020H   008020H   000001H   BYTE   OFFS..   XDATA          ?XD?MAIN?15
008021H   008021H   000001H   BYTE   OFFS..   XDATA          ?XD?MAIN?13
008022H   0080FFH   0000DEH   ---    ---      **GAP**
008100H   008100H   000001H   BYTE   OFFS..   XDATA          ?XD?MAIN?9
008101H   008101H   000001H   BYTE   OFFS..   XDATA          ?XD?MAIN?17
008102H   008102H   000001H   ---    ---      **GAP**
008103H   008103H   000001H   BYTE   OFFS..   XDATA          ?XD?MAIN?8
008104H   008105H   000002H   ---    ---      **GAP**
008106H   008106H   000001H   BYTE   OFFS..   XDATA          ?XD?MAIN?18
008107H   008107H   000001H   BYTE   OFFS..   XDATA          ?XD?MAIN?62
008108H   008108H   000001H   BYTE   OFFS..   XDATA          ?XD?MAIN?5
008109H   008109H   000001H   BYTE   OFFS..   XDATA          ?XD?MAIN?61
00810AH   00810AH   000001H   BYTE   OFFS..   XDATA          ?XD?MAIN?6
00810BH   00810BH   000001H   BYTE   OFFS..   XDATA          ?XD?MAIN?12
00810CH   00810CH   000001H   BYTE   OFFS..   XDATA          ?XD?MAIN?10
00810DH   00810DH   000001H   BYTE   OFFS..   XDATA          ?XD?MAIN?14
00810EH   00810EH   000001H   BYTE   OFFS..   XDATA          ?XD?MAIN?11
00810FH   00810FH   000001H   BYTE   OFFS..   XDATA          ?XD?MAIN?21
008110H   008110H   000001H   BYTE   OFFS..   XDATA          ?XD?MAIN?22
008111H   008116H   000006H   ---    ---      **GAP**
008117H   008117H   000001H   BYTE   OFFS..   XDATA          ?XD?MAIN?25
008118H   00811DH   000006H   ---    ---      **GAP**
00811EH   00811EH   000001H   BYTE   OFFS..   XDATA          ?XD?MAIN?0
00811FH   00811FH   000001H   BYTE   OFFS..   XDATA          ?XD?MAIN?7
008120H   008120H   000001H   BYTE   OFFS..   XDATA          ?XD?MAIN?29
008121H   008121H   000001H   BYTE   OFFS..   XDATA          ?XD?MAIN?31
008122H   008122H   000001H   BYTE   OFFS..   XDATA          ?XD?MAIN?34
008123H   008123H   000001H   BYTE   OFFS..   XDATA          ?XD?MAIN?38
008124H   008124H   000001H   BYTE   OFFS..   XDATA          ?XD?MAIN?42
008125H   008125H   000001H   BYTE   OFFS..   XDATA          ?XD?MAIN?47
008126H   008126H   000001H   BYTE   OFFS..   XDATA          ?XD?MAIN?53
008127H   008127H   000001H   BYTE   OFFS..   XDATA          ?XD?MAIN?60
LX51 LINKER/LOCATER V4.66.66.0                                                        08/04/2020  11:17:01  PAGE 4


008128H   008128H   000001H   BYTE   OFFS..   XDATA          ?XD?MAIN?30
008129H   008129H   000001H   BYTE   OFFS..   XDATA          ?XD?MAIN?33
00812AH   00812AH   000001H   BYTE   OFFS..   XDATA          ?XD?MAIN?37
00812BH   00812BH   000001H   BYTE   OFFS..   XDATA          ?XD?MAIN?41
00812CH   00812CH   000001H   BYTE   OFFS..   XDATA          ?XD?MAIN?46
00812DH   00812DH   000001H   BYTE   OFFS..   XDATA          ?XD?MAIN?52
00812EH   00812EH   000001H   BYTE   OFFS..   XDATA          ?XD?MAIN?59
00812FH   00812FH   000001H   BYTE   OFFS..   XDATA          ?XD?MAIN?67
008130H   008130H   000001H   BYTE   OFFS..   XDATA          ?XD?MAIN?32
008131H   008131H   000001H   BYTE   OFFS..   XDATA          ?XD?MAIN?36
008132H   008137H   000006H   ---    ---      **GAP**
008138H   008138H   000001H   BYTE   OFFS..   XDATA          ?XD?MAIN?35
008139H   008139H   000001H   BYTE   OFFS..   XDATA          ?XD?MAIN?40
00813AH   00813AH   000001H   BYTE   OFFS..   XDATA          ?XD?MAIN?45
00813BH   00813BH   000001H   BYTE   OFFS..   XDATA          ?XD?MAIN?51
00813CH   00813CH   000001H   BYTE   OFFS..   XDATA          ?XD?MAIN?58
00813DH   00813DH   000001H   BYTE   OFFS..   XDATA          ?XD?MAIN?66
00813EH   00813EH   000001H   BYTE   OFFS..   XDATA          ?XD?MAIN?71
00813FH   00813FH   000001H   BYTE   OFFS..   XDATA          ?XD?MAIN?75
008140H   00FBFFH   007AC0H   ---    ---      **GAP**
00FC00H   00FC00H   000001H   BYTE   OFFS..   XDATA          ?XD?MAIN?28
00FC01H   00FC01H   000001H   BYTE   OFFS..   XDATA          ?XD?MAIN?26
00FC02H   00FC02H   000001H   BYTE   OFFS..   XDATA          ?XD?MAIN?27
00FC03H   00FC03H   000001H   BYTE   OFFS..   XDATA          ?XD?MAIN?16
00FC04H   00FC04H   000001H   BYTE   OFFS..   XDATA          ?XD?MAIN?24
00FC05H   00FC05H   000001H   BYTE   OFFS..   XDATA          ?XD?MAIN?20
00FC06H   00FC06H   000001H   BYTE   OFFS..   XDATA          ?XD?MAIN?19
00FC07H   00FC07H   000001H   BYTE   OFFS..   XDATA          ?XD?MAIN?23

* * * * * * * * *   R E M O V E D     S E G M E N T S   * * * * * * * *
   *DEL*:           00001DH   BYTE   UNIT     CODE           ?PR?_DELAY_50US?DELAY
   *DEL*:           00001BH   BYTE   UNIT     CODE           ?PR?_DELAY_MS?DELAY
   *DEL*:           000007H   BYTE   UNIT     CODE           ?PR?SYS_CLK_SET_IRCH?SYSTEM_CLOCK
   *DEL*:           00000CH   BYTE   UNIT     CODE           ?PR?SYS_CLK_SET_IRCL?SYSTEM_CLOCK
   *DEL*:           00001BH   BYTE   UNIT     CODE           ?PR?SYS_CLK_SET_XOSCL?SYSTEM_CLOCK
   *DEL*:           00000CH   BYTE   UNIT     CODE           ?PR?SYS_CLK_SET_TFRC?SYSTEM_CLOCK
   *DEL*:           000005H   BYTE   UNIT     CODE           ?PR?_PUTCHAR?UART
   *DEL*:           000001H   BYTE   UNIT     DATA           ?DT?_PUTCHAR?UART
   *DEL*:           000037H   BYTE   UNIT     CODE           ?PR?TS_BASELINEFORCEUPDATE?TS_SEVICE
   *DEL*:           000001H   BYTE   UNIT     DATA           ?DT?TS_BASELINEFORCEUPDATE?TS_SEVICE
   *DEL*:           000041H   BYTE   UNIT     CODE           ?PR?_SETWHEELSLIDERREFCH?TS_SEVICE
   *DEL*:           000002H   BYTE   UNIT     DATA           ?DT?_SETWHEELSLIDERREFCH?TS_SEVICE
   *DEL*:           000216H   BYTE   UNIT     CODE           ?PR?_WHEELTOUCHJUDGE?TS_SEVICE
   *DEL*:           000014H   BYTE   UNIT     DATA           ?DT?_WHEELTOUCHJUDGE?TS_SEVICE
   *DEL*:           000000H.1 BIT    UNIT     BIT            ?BI?_WHEELTOUCHJUDGE?TS_SEVICE
   *DEL*:           000239H   BYTE   UNIT     CODE           ?PR?_SLIDERTOUCHJUDGE?TS_SEVICE
   *DEL*:           000014H   BYTE   UNIT     DATA           ?DT?_SLIDERTOUCHJUDGE?TS_SEVICE



OVERLAY MAP OF MODULE:   .\hex\ca51f3 (MAIN)


FUNCTION/MODULE                          BIT_GROUP   DATA_GROUP 
--> CALLED FUNCTION/MODULE              START  STOP  START  STOP
================================================================
INT8_ISR/INTERRUPT                      ----- -----  ----- -----
  +--> TS_MS_ISR/TS_API
  +--> TS_HS_ISR/TS_API

TS_MS_ISR/TS_API                        ----- -----  ----- -----
  +--> TS_API

TS_API                                  ----- -----  ----- -----
  +--> ?CO?TS_API
LX51 LINKER/LOCATER V4.66.66.0                                                        08/04/2020  11:17:01  PAGE 5



?CO?TS_API                              ----- -----  ----- -----

TS_HS_ISR/TS_API                        ----- -----  ----- -----
  +--> TS_API

*** NEW ROOT **************************

INT3_ISR/INTERRUPT                      ----- -----  ----- -----
  +--> TS_ISR/TS_API

TS_ISR/TS_API                           ----- -----  0008H 0014H
  +--> TS_API
  +--> TS_SCANSTART/TS_SEVICE

TS_SCANSTART/TS_SEVICE                  ----- -----  ----- -----

*** NEW ROOT **************************

INT6_ISR/INTERRUPT                      ----- -----  ----- -----
  +--> I2C_ISR/DEBUG

I2C_ISR/DEBUG                           ----- -----  ----- -----
  +--> DEBUG
  +--> ?CO?DEBUG

DEBUG                                   ----- -----  ----- -----

?CO?DEBUG                               ----- -----  ----- -----

*** NEW ROOT **************************

?C_C51STARTUP                           ----- -----  ----- -----
  +--> MAIN/MAIN
  +--> ?C_INITSEG

MAIN/MAIN                               ----- -----  ----- -----
  +--> SYSTEMINIT/MAIN
  +--> TS_INIT/TS_API
  +--> TS_ACTION/TS_API

SYSTEMINIT/MAIN                         ----- -----  ----- -----
  +--> _SYS_CLK_SET_PLL/SYSTEM_CLOCK
  +--> READ_INNER_TRIM/MAIN

_SYS_CLK_SET_PLL/SYSTEM_CLOCK           ----- -----  ----- -----

READ_INNER_TRIM/MAIN                    ----- -----  ----- -----

TS_INIT/TS_API                          ----- -----  ----- -----
  +--> DEBUG_INIT/DEBUG
  +--> ?CO?TS_API
  +--> TS_IO_INIT/TS_SEVICE

DEBUG_INIT/DEBUG                        ----- -----  ----- -----

TS_IO_INIT/TS_SEVICE                    ----- -----  ----- -----
  +--> ?CO?TS_SEVICE

?CO?TS_SEVICE                           ----- -----  ----- -----

TS_ACTION/TS_API                        ----- -----  ----- -----
  +--> TS_RUNINIT/TS_API
  +--> TS_DATAFILTERING/TS_API
  +--> TSKEY_DATADEAL/TS_API
LX51 LINKER/LOCATER V4.66.66.0                                                        08/04/2020  11:17:01  PAGE 6


  +--> DEBUG_PARAMLOAD/DEBUG
  +--> TS_INIT/TS_API
  +--> TS_GETKEY/TS_API

TS_RUNINIT/TS_API                       ----- -----  0015H 0017H
  +--> TS_SCANSTART/TS_SEVICE
  +--> TS_API
  +--> ?CO?TS_API
  +--> _TS_AREACONFIRMTIMERSET/TS_SEVICE
  +--> DEBUG_PARAMLOAD/DEBUG

_TS_AREACONFIRMTIMERSET/TS_SEVICE       ----- -----  ----- -----
  +--> ?CO?TS_API

DEBUG_PARAMLOAD/DEBUG                   ----- -----  ----- -----

TS_DATAFILTERING/TS_API                 ----- -----  0015H 001BH
  +--> TS_API

TSKEY_DATADEAL/TS_API                   ----- -----  0015H 0017H
  +--> TS_API
  +--> ?CO?TS_API
  +--> _TS_AREADEVIATEDETECTION/TS_SEVICE
  +--> _TS_AREACONFIRMTIMERSET/TS_SEVICE
  +--> _TS_GETDATAAREA/TS_SEVICE

_TS_AREADEVIATEDETECTION/TS_SEVICE      ----- -----  ----- -----

_TS_GETDATAAREA/TS_SEVICE               20H.4 20H.4  0018H 0019H
  +--> TS_SEVICE

TS_SEVICE                               ----- -----  ----- -----
  +--> ?CO?TS_API

TS_GETKEY/TS_API                        ----- -----  ----- -----
  +--> ?CO?TS_API

?C_INITSEG                              ----- -----  ----- -----



PUBLIC SYMBOLS OF MODULE:  .\hex\ca51f3 (MAIN)


      VALUE       CLASS    TYPE      PUBLIC SYMBOL NAME
      =================================================
      00000020H.4 BIT      BIT       ?_TS_GetDataArea?BIT
      0100006EH   CODE     ---       ?C?CLDOPTR
      00000000H   NUMBER   ---       ?C?CODESEG
      010000ADH   CODE     ---       ?C?CSTOPTR
      0100009BH   CODE     ---       ?C?CSTPTR
      0100016CH   CODE     ---       ?C?IILDX
      010000CFH   CODE     ---       ?C?IMUL
      01000274H   CODE     ---       ?C?LIMUL
      01000250H   CODE     ---       ?C?LSTXDATA
      0100025CH   CODE     ---       ?C?OFFXADD
      01000268H   CODE     ---       ?C?PLDCODE
      01000136H   CODE     ---       ?C?SIDIV
      010000E1H   CODE     ---       ?C?UIDIV
      010001BEH   CODE     ---       ?C?ULDIV
      00000000H   NUMBER   ---       ?C?XDATASEG
      010008B0H   CODE     ---       ?C_START
      01000000H   CODE     ---       ?C_STARTUP
*DEL*:00000000H   CODE     ---       _Delay_50us
*DEL*:00000000H   CODE     ---       _Delay_ms
LX51 LINKER/LOCATER V4.66.66.0                                                        08/04/2020  11:17:01  PAGE 7


*DEL*:00000000H   CODE     ---       _putchar
*DEL*:00000000H   CODE     ---       _SetWheelSliderRefCh
*DEL*:00000000H   CODE     ---       _SliderTouchJudge
      01000D0AH   CODE     ---       _Sys_Clk_Set_PLL
      01000046H   CODE     ---       _TS_AreaConfirmTimerSet
      01000C82H   CODE     ---       _TS_AreaDeviateDetection
      01000A55H   CODE     ---       _TS_GetDataArea
*DEL*:00000000H   CODE     ---       _WheelTouchJudge
*SFR* 000000D0H.6 DATA     BIT       AC
*SFR* 000000E0H   DATA     BYTE      ACC
      00000028H   DATA     BYTE      ActiveTouchType
      02008021H   XDATA    BYTE      ADCALH
      02008020H   XDATA    BYTE      ADCALL
*SFR* 000000BDH   DATA     BYTE      ADCDH
*SFR* 000000BCH   DATA     BYTE      ADCDL
*SFR* 000000BBH   DATA     BYTE      ADCFGH
*SFR* 000000BAH   DATA     BYTE      ADCFGL
*SFR* 000000B9H   DATA     BYTE      ADCON
      01000DCFH   CONST    ---       AREA_CONFIRM_TIME_TAB
*SFR* 000000C6H   DATA     BYTE      ATKCH
*SFR* 000000C5H   DATA     BYTE      ATKCL
*SFR* 000000E7H   DATA     BYTE      ATKNH
*SFR* 000000E6H   DATA     BYTE      ATKNL
*SFR* 000000F0H   DATA     BYTE      B
*SFR* 000000A1H   DATA     BYTE      CKCON
*SFR* 000000A3H   DATA     BYTE      CKDIV
*SFR* 000000BFH   DATA     BYTE      CKMIF
*SFR* 000000BEH   DATA     BYTE      CKMON
*SFR* 000000A2H   DATA     BYTE      CKSEL
*SFR* 000000D0H.7 DATA     BIT       CY
      01000CB0H   CODE     ---       Debug_init
      01000B10H   CODE     ---       Debug_ParamLoad
*SFR* 00000083H   DATA     BYTE      DP0H
*SFR* 00000082H   DATA     BYTE      DP0L
*SFR* 00000085H   DATA     BYTE      DP1H
*SFR* 00000084H   DATA     BYTE      DP1L
*SFR* 000000D0H.1 DATA     BIT       DPS
*SFR* 000000A8H.7 DATA     BIT       EA
      0200002AH   XDATA    BYTE      EnterStopScanTimer
*SFR* 000000FBH   DATA     BYTE      EPCON
*SFR* 000000F9H   DATA     BYTE      EPIE
*SFR* 000000FAH   DATA     BYTE      EPIF
*SFR* 000000A8H.4 DATA     BIT       ES0
*SFR* 000000A8H.6 DATA     BIT       ES1
*SFR* 000000A8H.1 DATA     BIT       ET0
*SFR* 000000A8H.3 DATA     BIT       ET1
*SFR* 000000A8H.5 DATA     BIT       ET2
*SFR* 000000A8H   DATA     BIT       EX0
*SFR* 000000A8H.2 DATA     BIT       EX1
*SFR* 000000E8H   DATA     BYTE      EXIE
*SFR* 000000F8H   DATA     BYTE      EXIP
*SFR* 000000D0H.5 DATA     BIT       F0
      0200FC01H   XDATA    BYTE      FSCMD
      0200FC02H   XDATA    BYTE      FSDAT
      0200811EH   XDATA    BYTE      FTCTL
      01000980H   CODE     ---       I2C_ISR
*SFR* 000000B3H   DATA     BYTE      I2CADM
*SFR* 000000B2H   DATA     BYTE      I2CADR
*SFR* 000000B1H   DATA     BYTE      I2CCON
*SFR* 000000B4H   DATA     BYTE      I2CCR
*SFR* 000000B5H   DATA     BYTE      I2CDAT
*SFR* 000000B7H   DATA     BYTE      I2CFLG
      02008101H   XDATA    BYTE      I2CIOS
*SFR* 000000B6H   DATA     BYTE      I2CSTA
*SFR* 000000FDH   DATA     BYTE      IDLSTH
LX51 LINKER/LOCATER V4.66.66.0                                                        08/04/2020  11:17:01  PAGE 8


*SFR* 000000FCH   DATA     BYTE      IDLSTL
*SFR* 000000A8H   DATA     BYTE      IE
*SFR* 00000088H.1 DATA     BIT       IE0
*SFR* 00000088H.3 DATA     BIT       IE1
*SFR* 000000A5H   DATA     BYTE      IHCFGH
*SFR* 000000A4H   DATA     BYTE      IHCFGL
      00000020H.3 BIT      BIT       iicReadMode
*SFR* 000000A7H   DATA     BYTE      ILCFGH
*SFR* 000000A6H   DATA     BYTE      ILCFGL
*SFR* 000000C0H   DATA     BYTE      INDEX
*SFR* 000000E8H   DATA     BIT       INT2EN
      01000BADH   CODE     ---       INT3_ISR
*SFR* 000000E8H.1 DATA     BIT       INT3EN
*SFR* 000000E8H.2 DATA     BIT       INT4EN
*SFR* 000000E8H.3 DATA     BIT       INT5EN
      01000003H   CODE     ---       INT6_ISR
*SFR* 000000E8H.4 DATA     BIT       INT6EN
*SFR* 000000E8H.5 DATA     BIT       INT7EN
      01000AB4H   CODE     ---       INT8_ISR
*SFR* 000000E8H.6 DATA     BIT       INT8EN
*SFR* 000000E8H.7 DATA     BIT       INT9EN
*SFR* 000000B8H   DATA     BYTE      IP
*SFR* 00000088H   DATA     BIT       IT0
*SFR* 0000008FH   DATA     BYTE      IT0CON
*SFR* 00000088H.2 DATA     BIT       IT1
*SFR* 0000008EH   DATA     BYTE      IT1CON
      02000039H   XDATA    BYTE      Key_Cnt_Debug
      0200002BH   XDATA    BYTE      KeysFlagSN
      02000001H   XDATA    DWORD     KeysFlagSN_Debug
      0200FC03H   XDATA    BYTE      LOCK
*SFR* 000000EFH   DATA     BYTE      LVDCON
      02008117H   XDATA    BYTE      LXCAD
*SFR* 000000E2H   DATA     BYTE      LXCFG
*SFR* 000000E1H   DATA     BYTE      LXCON
*SFR* 000000E3H   DATA     BYTE      LXDAT
*SFR* 000000E5H   DATA     BYTE      LXDIVH
*SFR* 000000E4H   DATA     BYTE      LXDIVL
      01000D72H   CODE     ---       main
      01000DCEH   CONST    ---       MASK_TAB
      0200FC00H   XDATA    BYTE      MECON
*SFR* 000000D0H.2 DATA     BIT       OV
*SFR* 000000D0H   DATA     BIT       P
*SFR* 00000080H   DATA     BYTE      P0
*SFR* 00000080H   DATA     BIT       P00
      02008120H   XDATA    BYTE      P00C
      02008000H   XDATA    BYTE      P00F
*SFR* 00000080H.1 DATA     BIT       P01
      02008121H   XDATA    BYTE      P01C
      02008001H   XDATA    BYTE      P01F
*SFR* 00000080H.2 DATA     BIT       P02
      02008122H   XDATA    BYTE      P02C
      02008002H   XDATA    BYTE      P02F
*SFR* 00000080H.3 DATA     BIT       P03
      02008123H   XDATA    BYTE      P03C
      02008003H   XDATA    BYTE      P03F
*SFR* 00000080H.4 DATA     BIT       P04
      02008124H   XDATA    BYTE      P04C
      02008004H   XDATA    BYTE      P04F
*SFR* 00000080H.5 DATA     BIT       P05
      02008125H   XDATA    BYTE      P05C
      02008005H   XDATA    BYTE      P05F
*SFR* 00000080H.6 DATA     BIT       P06
      02008126H   XDATA    BYTE      P06C
      02008006H   XDATA    BYTE      P06F
*SFR* 00000080H.7 DATA     BIT       P07
LX51 LINKER/LOCATER V4.66.66.0                                                        08/04/2020  11:17:01  PAGE 9


      02008127H   XDATA    BYTE      P07C
      02008007H   XDATA    BYTE      P07F
*SFR* 00000090H   DATA     BYTE      P1
*SFR* 00000090H   DATA     BIT       P10
      02008128H   XDATA    BYTE      P10C
      02008008H   XDATA    BYTE      P10F
*SFR* 00000090H.1 DATA     BIT       P11
      02008129H   XDATA    BYTE      P11C
      02008009H   XDATA    BYTE      P11F
*SFR* 00000090H.2 DATA     BIT       P12
      0200812AH   XDATA    BYTE      P12C
      0200800AH   XDATA    BYTE      P12F
*SFR* 00000090H.3 DATA     BIT       P13
      0200812BH   XDATA    BYTE      P13C
      0200800BH   XDATA    BYTE      P13F
*SFR* 00000090H.4 DATA     BIT       P14
      0200812CH   XDATA    BYTE      P14C
      0200800CH   XDATA    BYTE      P14F
*SFR* 00000090H.5 DATA     BIT       P15
      0200812DH   XDATA    BYTE      P15C
      0200800DH   XDATA    BYTE      P15F
*SFR* 00000090H.6 DATA     BIT       P16
      0200812EH   XDATA    BYTE      P16C
      0200800EH   XDATA    BYTE      P16F
*SFR* 00000090H.7 DATA     BIT       P17
      0200812FH   XDATA    BYTE      P17C
      0200800FH   XDATA    BYTE      P17F
*SFR* 000000A0H   DATA     BYTE      P2
*SFR* 000000A0H   DATA     BIT       P20
      02008130H   XDATA    BYTE      P20C
      02008010H   XDATA    BYTE      P20F
*SFR* 000000A0H.1 DATA     BIT       P21
      02008131H   XDATA    BYTE      P21C
      02008011H   XDATA    BYTE      P21F
*SFR* 000000A0H.2 DATA     BIT       P22
*SFR* 000000A0H.3 DATA     BIT       P23
*SFR* 000000A0H.4 DATA     BIT       P24
*SFR* 000000A0H.5 DATA     BIT       P25
*SFR* 000000A0H.6 DATA     BIT       P26
*SFR* 000000B0H   DATA     BYTE      P3
*SFR* 000000B0H   DATA     BIT       P30
      02008138H   XDATA    BYTE      P30C
      02008018H   XDATA    BYTE      P30F
*SFR* 000000B0H.1 DATA     BIT       P31
      02008139H   XDATA    BYTE      P31C
      02008019H   XDATA    BYTE      P31F
*SFR* 000000B0H.2 DATA     BIT       P32
      0200813AH   XDATA    BYTE      P32C
      0200801AH   XDATA    BYTE      P32F
*SFR* 000000B0H.3 DATA     BIT       P33
      0200813BH   XDATA    BYTE      P33C
      0200801BH   XDATA    BYTE      P33F
*SFR* 000000B0H.4 DATA     BIT       P34
      0200813CH   XDATA    BYTE      P34C
      0200801CH   XDATA    BYTE      P34F
*SFR* 000000B0H.5 DATA     BIT       P35
      0200813DH   XDATA    BYTE      P35C
      0200801DH   XDATA    BYTE      P35F
*SFR* 000000B0H.6 DATA     BIT       P36
      0200813EH   XDATA    BYTE      P36C
      0200801EH   XDATA    BYTE      P36F
*SFR* 000000B0H.7 DATA     BIT       P37
      0200813FH   XDATA    BYTE      P37C
      0200801FH   XDATA    BYTE      P37F
      0200FC04H   XDATA    BYTE      PADRD
LX51 LINKER/LOCATER V4.66.66.0                                                        08/04/2020  11:17:01  PAGE 10


*SFR* 00000087H   DATA     BYTE      PCON
*SFR* 000000ADH   DATA     BYTE      PLLCON
      00000037H   IDATA    BYTE      PreKeysFlagSN
*SFR* 000000B8H.4 DATA     BIT       PS0
*SFR* 000000B8H.6 DATA     BIT       PS1
*SFR* 000000D0H   DATA     BYTE      PSW
*SFR* 000000B8H.1 DATA     BIT       PT0
*SFR* 000000B8H.3 DATA     BIT       PT1
*SFR* 000000B8H.5 DATA     BIT       PT2
      0000002EH   DATA     ---       pTS_Info
      0200FC06H   XDATA    BYTE      PTSH
      0200FC05H   XDATA    BYTE      PTSL
*SFR* 00000086H   DATA     BYTE      PWCON
*SFR* 000000D2H   DATA     BYTE      PWMAIF
*SFR* 000000D3H   DATA     BYTE      PWMBIF
*SFR* 000000DCH   DATA     BYTE      PWMCFG
*SFR* 000000D4H   DATA     BYTE      PWMCIF
*SFR* 000000DAH   DATA     BYTE      PWMCMAX
*SFR* 000000DBH   DATA     BYTE      PWMCON
*SFR* 000000DEH   DATA     BYTE      PWMDIVH
*SFR* 000000DDH   DATA     BYTE      PWMDIVL
*SFR* 000000D1H   DATA     BYTE      PWMDUTH
*SFR* 000000DFH   DATA     BYTE      PWMDUTL
*SFR* 000000D8H   DATA     BYTE      PWMEN
*SFR* 000000D9H   DATA     BYTE      PWMUPD
*SFR* 000000B8H   DATA     BIT       PX0
*SFR* 000000B8H.2 DATA     BIT       PX1
      01000D8DH   CONST    ---       pXSFR
*SFR* 00000098H.2 DATA     BIT       RB8
*SFR* 00000091H   DATA     BYTE      RCCON
*SFR* 0000009FH   DATA     BYTE      RCMSHH
*SFR* 0000009EH   DATA     BYTE      RCMSHL
*SFR* 00000097H   DATA     BYTE      RCMSLH
*SFR* 00000096H   DATA     BYTE      RCMSLL
*SFR* 00000095H   DATA     BYTE      RCTAGH
*SFR* 00000094H   DATA     BYTE      RCTAGL
      01000D52H   CODE     ---       read_inner_trim
      00000031H   DATA     BYTE      regAddr
*SFR* 00000098H.4 DATA     BIT       REN
      0200FC07H   XDATA    BYTE      REPSET
*SFR* 00000098H   DATA     BIT       RI0
*SFR* 000000D0H.3 DATA     BIT       RS0
*SFR* 000000D0H.4 DATA     BIT       RS1
*SFR* 000000F7H   DATA     BYTE      RSTF
*SFR* 000000ECH   DATA     BYTE      RTAH
*SFR* 000000EBH   DATA     BYTE      RTAM
*SFR* 000000EAH   DATA     BYTE      RTAS
*SFR* 000000F6H   DATA     BYTE      RTCDH
*SFR* 000000F5H   DATA     BYTE      RTCDL
*SFR* 000000F4H   DATA     BYTE      RTCH
*SFR* 000000EEH   DATA     BYTE      RTCIF
*SFR* 000000F3H   DATA     BYTE      RTCM
*SFR* 000000F1H   DATA     BYTE      RTCON
*SFR* 000000F2H   DATA     BYTE      RTCS
*SFR* 000000E9H   DATA     BYTE      RTCSS
*SFR* 000000EDH   DATA     BYTE      RTMSS
      00000032H   DATA     BYTE      rxOffset
*SFR* 00000099H   DATA     BYTE      S0BUF
*SFR* 00000098H   DATA     BYTE      S0CON
*SFR* 0000009BH   DATA     BYTE      S1BUF
*SFR* 0000009AH   DATA     BYTE      S1CON
*SFR* 0000009DH   DATA     BYTE      S1RELH
*SFR* 0000009CH   DATA     BYTE      S1RELL
*SFR* 00000098H.7 DATA     BIT       SM0
*SFR* 00000098H.6 DATA     BIT       SM1
LX51 LINKER/LOCATER V4.66.66.0                                                        08/04/2020  11:17:01  PAGE 11


*SFR* 00000098H.5 DATA     BIT       SM2
*SFR* 00000081H   DATA     BYTE      SP
      02008100H   XDATA    BYTE      SPMAX
*SFR* 000000FFH   DATA     BYTE      STPSTH
*SFR* 000000FEH   DATA     BYTE      STPSTL
*DEL*:00000000H   CODE     ---       Sys_Clk_Set_IRCH
*DEL*:00000000H   CODE     ---       Sys_Clk_Set_IRCL
*DEL*:00000000H   CODE     ---       Sys_Clk_Set_TFRC
*DEL*:00000000H   CODE     ---       Sys_Clk_Set_XOSCL
      01000D30H   CODE     ---       SystemInit
*SFR* 000000CBH   DATA     BYTE      T2CH
*SFR* 000000CAH   DATA     BYTE      T2CL
*SFR* 000000C8H   DATA     BYTE      T2CON
*SFR* 000000C8H.3 DATA     BIT       T2IE
*SFR* 000000C9H   DATA     BYTE      T2MOD
*SFR* 000000C8H   DATA     BIT       T2P0
*SFR* 000000C8H.1 DATA     BIT       T2P1
*SFR* 000000C8H.4 DATA     BIT       T2R0
*SFR* 000000C8H.5 DATA     BIT       T2R1
*SFR* 00000098H.3 DATA     BIT       TB8
*SFR* 00000088H   DATA     BYTE      TCON
*SFR* 00000088H.5 DATA     BIT       TF0
*SFR* 00000088H.7 DATA     BIT       TF1
*SFR* 000000C8H.7 DATA     BIT       TF2
*SFR* 000000AFH   DATA     BYTE      TFCFG
*SFR* 0000008CH   DATA     BYTE      TH0
*SFR* 0000008DH   DATA     BYTE      TH1
*SFR* 000000CDH   DATA     BYTE      TH2
*SFR* 00000098H.1 DATA     BIT       TI0
      00000027H   DATA     BYTE      TK_State
*SFR* 000000C2H   DATA     BYTE      TKCFG
*SFR* 000000C4H   DATA     BYTE      TKCHS
*SFR* 000000C1H   DATA     BYTE      TKCON
*SFR* 000000C7H   DATA     BYTE      TKIF
*SFR* 000000D5H   DATA     BYTE      TKMAXF
*SFR* 000000D6H   DATA     BYTE      TKMINF
*SFR* 000000CFH   DATA     BYTE      TKMSH
*SFR* 000000CEH   DATA     BYTE      TKMSL
*SFR* 000000C3H   DATA     BYTE      TKMTS
      02008103H   XDATA    BYTE      TKPWC
*SFR* 0000008AH   DATA     BYTE      TL0
*SFR* 0000008BH   DATA     BYTE      TL1
*SFR* 000000CCH   DATA     BYTE      TL2
      0200810AH   XDATA    BYTE      TLCKS
      0200810FH   XDATA    BYTE      TLCNTD
      0200810CH   XDATA    BYTE      TLCNTKH
      0200810BH   XDATA    BYTE      TLCNTKL
      0200810EH   XDATA    BYTE      TLCNTLH
      0200810DH   XDATA    BYTE      TLCNTLL
      02008110H   XDATA    BYTE      TLCOMS
      02008108H   XDATA    BYTE      TLCON
      02008107H   XDATA    BYTE      TLDAT
      02008106H   XDATA    BYTE      TLEN
      02008109H   XDATA    BYTE      TLFLG
*SFR* 00000089H   DATA     BYTE      TMOD
      0200003AH   XDATA    BYTE      TouchDebugID
      0200811FH   XDATA    BYTE      TPCTL
*SFR* 00000088H.4 DATA     BIT       TR0
*SFR* 00000088H.6 DATA     BIT       TR1
*SFR* 000000C8H.6 DATA     BIT       TR2
      01000BECH   CODE     ---       TS_Action
      02000035H   XDATA    ---       TS_AreaConfirmTimer
      00000029H   DATA     BYTE      TS_BaseCh
      02000007H   XDATA    ---       TS_BaseLineData
*DEL*:00000000H   CODE     ---       TS_BaseLineForceUpdate
LX51 LINKER/LOCATER V4.66.66.0                                                        08/04/2020  11:17:01  PAGE 12


      00000034H   IDATA    ---       TS_CH
      02000036H   XDATA    ---       TS_CH_Debug
      00000035H   IDATA    BYTE      TS_Cnt
      00000020H.1 BIT      BIT       TS_CycleScanDoneFlag
      01000630H   CODE     ---       TS_DataFiltering
      02000009H   XDATA    ---       TS_FilterBuf
      0200002FH   XDATA    ---       TS_FilterPosIdx
      02000005H   XDATA    ---       TS_FirstAreaData
      010008F5H   CODE     ---       TS_GetKey
      0200002CH   XDATA    BYTE      TS_HalfSecCnt
      01000CDDH   CODE     ---       TS_HS_ISR
      00000026H   DATA     BYTE      TS_Index
      01000DE8H   CONST    ---       TS_INFO
      010009F3H   CODE     ---       TS_init
      0200001DH   XDATA    BYTE      TS_Init_Step
      01000C25H   CODE     ---       TS_IO_init
      010007B5H   CODE     ---       TS_ISR
      0000002AH   DATA     WORD      TS_Key
      01000DC9H   CONST    ---       TS_KEY_CH_INFO_SEQ
      01000DD4H   CONST    ---       TS_KEY_TAB
      0000002CH   DATA     WORD      TS_LongKeyTimer
      01000C54H   CODE     ---       TS_MS_ISR
      0200001FH   XDATA    ---       TS_PostData
      02000024H   XDATA    ---       TS_RawData
      00000036H   IDATA    BYTE      TS_RefCHBaseLineAdjuTimer
      02000033H   XDATA    WORD      TS_RefChBaseLineData
      0200002DH   XDATA    WORD      TS_RefPostData
      010002A1H   CODE     ---       TS_RunInit
      01000B63H   CODE     ---       TS_ScanStart
      00000020H.2 BIT      BIT       TS_StableFlag
      00000033H   IDATA    BYTE      TS_State
      02000032H   XDATA    BYTE      TS_State_Debug
      01000525H   CODE     ---       TSKey_DataDeal
      02000028H   XDATA    ---       TSKey_FingerThd
      02000031H   XDATA    ---       TSKey_LongTouchLimitTimer
*SFR* 000000C8H.2 DATA     BIT       UCKS
*SFR* 00000093H   DATA     BYTE      VCKDH
*SFR* 00000092H   DATA     BYTE      VCKDL
*SFR* 000000A9H   DATA     BYTE      WDCON
*SFR* 000000AAH   DATA     BYTE      WDFLG
*SFR* 000000ACH   DATA     BYTE      WDVTHH
*SFR* 000000ABH   DATA     BYTE      WDVTHL
      01000DCDH   CONST    ---       WHEEL_SLIDER0_MAX_MIN_TAB
      02000037H   XDATA    WORD      WheelSliderCapRateFilter
      02000023H   XDATA    BYTE      WheelSliderMaxIdx
      0200001EH   XDATA    BYTE      WheelSliderRefCh



SYMBOL TABLE OF MODULE:  .\hex\ca51f3 (MAIN)

      VALUE       REP       CLASS    TYPE      SYMBOL NAME
      ====================================================
      ---         MODULE    ---      ---       MAIN
      02008007H   PUBLIC    XDATA    BYTE      P07F
      0200800EH   PUBLIC    XDATA    BYTE      P16F
      0200801CH   PUBLIC    XDATA    BYTE      P34F
      0200813FH   PUBLIC    XDATA    BYTE      P37C
      02008006H   PUBLIC    XDATA    BYTE      P06F
      0200800DH   PUBLIC    XDATA    BYTE      P15F
      0200801BH   PUBLIC    XDATA    BYTE      P33F
      0200813EH   PUBLIC    XDATA    BYTE      P36C
      02008005H   PUBLIC    XDATA    BYTE      P05F
      0200800CH   PUBLIC    XDATA    BYTE      P14F
      0200801AH   PUBLIC    XDATA    BYTE      P32F
LX51 LINKER/LOCATER V4.66.66.0                                                        08/04/2020  11:17:01  PAGE 13


      0200812FH   PUBLIC    XDATA    BYTE      P17C
      0200813DH   PUBLIC    XDATA    BYTE      P35C
      02008004H   PUBLIC    XDATA    BYTE      P04F
      0200800BH   PUBLIC    XDATA    BYTE      P13F
      02008019H   PUBLIC    XDATA    BYTE      P31F
      02008107H   PUBLIC    XDATA    BYTE      TLDAT
      02008109H   PUBLIC    XDATA    BYTE      TLFLG
      02008127H   PUBLIC    XDATA    BYTE      P07C
      0200812EH   PUBLIC    XDATA    BYTE      P16C
      0200813CH   PUBLIC    XDATA    BYTE      P34C
      02008003H   PUBLIC    XDATA    BYTE      P03F
      0200800AH   PUBLIC    XDATA    BYTE      P12F
      02008011H   PUBLIC    XDATA    BYTE      P21F
      02008018H   PUBLIC    XDATA    BYTE      P30F
      02008126H   PUBLIC    XDATA    BYTE      P06C
      0200812DH   PUBLIC    XDATA    BYTE      P15C
      0200813BH   PUBLIC    XDATA    BYTE      P33C
      02008002H   PUBLIC    XDATA    BYTE      P02F
      02008009H   PUBLIC    XDATA    BYTE      P11F
      02008010H   PUBLIC    XDATA    BYTE      P20F
      02008125H   PUBLIC    XDATA    BYTE      P05C
      0200812CH   PUBLIC    XDATA    BYTE      P14C
      0200813AH   PUBLIC    XDATA    BYTE      P32C
      02008001H   PUBLIC    XDATA    BYTE      P01F
      02008008H   PUBLIC    XDATA    BYTE      P10F
      02008124H   PUBLIC    XDATA    BYTE      P04C
      0200812BH   PUBLIC    XDATA    BYTE      P13C
      02008139H   PUBLIC    XDATA    BYTE      P31C
      02008000H   PUBLIC    XDATA    BYTE      P00F
      02008123H   PUBLIC    XDATA    BYTE      P03C
      0200812AH   PUBLIC    XDATA    BYTE      P12C
      02008131H   PUBLIC    XDATA    BYTE      P21C
      02008138H   PUBLIC    XDATA    BYTE      P30C
      02008122H   PUBLIC    XDATA    BYTE      P02C
      02008129H   PUBLIC    XDATA    BYTE      P11C
      02008130H   PUBLIC    XDATA    BYTE      P20C
      02008121H   PUBLIC    XDATA    BYTE      P01C
      02008128H   PUBLIC    XDATA    BYTE      P10C
      02008120H   PUBLIC    XDATA    BYTE      P00C
      0200FC00H   PUBLIC    XDATA    BYTE      MECON
      0200FC02H   PUBLIC    XDATA    BYTE      FSDAT
      0200FC01H   PUBLIC    XDATA    BYTE      FSCMD
      02008117H   PUBLIC    XDATA    BYTE      LXCAD
      0200FC04H   PUBLIC    XDATA    BYTE      PADRD
      0200FC07H   PUBLIC    XDATA    BYTE      REPSET
      02008110H   PUBLIC    XDATA    BYTE      TLCOMS
      0200810FH   PUBLIC    XDATA    BYTE      TLCNTD
      0200FC05H   PUBLIC    XDATA    BYTE      PTSL
      0200FC06H   PUBLIC    XDATA    BYTE      PTSH
      02008106H   PUBLIC    XDATA    BYTE      TLEN
      02008101H   PUBLIC    XDATA    BYTE      I2CIOS
      0200FC03H   PUBLIC    XDATA    BYTE      LOCK
      02008020H   PUBLIC    XDATA    BYTE      ADCALL
      0200810DH   PUBLIC    XDATA    BYTE      TLCNTLL
      02008021H   PUBLIC    XDATA    BYTE      ADCALH
      0200810BH   PUBLIC    XDATA    BYTE      TLCNTKL
      0200810EH   PUBLIC    XDATA    BYTE      TLCNTLH
      0200810CH   PUBLIC    XDATA    BYTE      TLCNTKH
      02008100H   PUBLIC    XDATA    BYTE      SPMAX
      02008103H   PUBLIC    XDATA    BYTE      TKPWC
      0200811FH   PUBLIC    XDATA    BYTE      TPCTL
      0200810AH   PUBLIC    XDATA    BYTE      TLCKS
      02008108H   PUBLIC    XDATA    BYTE      TLCON
      0200801FH   PUBLIC    XDATA    BYTE      P37F
      0200801EH   PUBLIC    XDATA    BYTE      P36F
LX51 LINKER/LOCATER V4.66.66.0                                                        08/04/2020  11:17:01  PAGE 14


      0200800FH   PUBLIC    XDATA    BYTE      P17F
      0200801DH   PUBLIC    XDATA    BYTE      P35F
      0200811EH   PUBLIC    XDATA    BYTE      FTCTL
      01000D72H   PUBLIC    CODE     ---       main
      01000D30H   PUBLIC    CODE     ---       SystemInit
      01000D52H   PUBLIC    CODE     ---       read_inner_trim
      000000E3H   SFRSYM    DATA     BYTE      LXDAT
      000000C4H   SFRSYM    DATA     BYTE      TKCHS
      00000080H   SFRSYM    DATA     BYTE      P0
      000000C1H   SFRSYM    DATA     BYTE      TKCON
      00000090H   SFRSYM    DATA     BYTE      P1
      000000A0H   SFRSYM    DATA     BYTE      P2
      000000B0H   SFRSYM    DATA     BYTE      P3
      000000D0H.6 SFRSYM    DATA     BIT       AC
      000000A8H.7 SFRSYM    DATA     BIT       EA
      000000E1H   SFRSYM    DATA     BYTE      LXCON
      000000C8H   SFRSYM    DATA     BIT       T2P0
      000000C8H.1 SFRSYM    DATA     BIT       T2P1
      000000F1H   SFRSYM    DATA     BYTE      RTCON
      000000C8H.4 SFRSYM    DATA     BIT       T2R0
      000000D8H   SFRSYM    DATA     BYTE      PWMEN
      000000CFH   SFRSYM    DATA     BYTE      TKMSH
      00000086H   SFRSYM    DATA     BYTE      PWCON
      000000C8H.5 SFRSYM    DATA     BIT       T2R1
      000000CEH   SFRSYM    DATA     BYTE      TKMSL
      00000083H   SFRSYM    DATA     BYTE      DP0H
      000000A8H   SFRSYM    DATA     BYTE      IE
      00000085H   SFRSYM    DATA     BYTE      DP1H
      000000E9H   SFRSYM    DATA     BYTE      RTCSS
      00000082H   SFRSYM    DATA     BYTE      DP0L
      000000CBH   SFRSYM    DATA     BYTE      T2CH
      000000B3H   SFRSYM    DATA     BYTE      I2CADM
      00000084H   SFRSYM    DATA     BYTE      DP1L
      000000C8H.3 SFRSYM    DATA     BIT       T2IE
      000000C3H   SFRSYM    DATA     BYTE      TKMTS
      000000CAH   SFRSYM    DATA     BYTE      T2CL
      000000B2H   SFRSYM    DATA     BYTE      I2CADR
      000000B8H   SFRSYM    DATA     BYTE      IP
      000000B7H   SFRSYM    DATA     BYTE      I2CFLG
      000000B5H   SFRSYM    DATA     BYTE      I2CDAT
      000000EDH   SFRSYM    DATA     BYTE      RTMSS
      000000D0H.7 SFRSYM    DATA     BIT       CY
      000000BBH   SFRSYM    DATA     BYTE      ADCFGH
      000000DAH   SFRSYM    DATA     BYTE      PWMCMAX
      000000B1H   SFRSYM    DATA     BYTE      I2CCON
      000000DEH   SFRSYM    DATA     BYTE      PWMDIVH
      000000BAH   SFRSYM    DATA     BYTE      ADCFGL
      00000081H   SFRSYM    DATA     BYTE      SP
      000000F9H   SFRSYM    DATA     BYTE      EPIE
      000000D0H.2 SFRSYM    DATA     BIT       OV
      000000FAH   SFRSYM    DATA     BYTE      EPIF
      000000DDH   SFRSYM    DATA     BYTE      PWMDIVL
      000000B6H   SFRSYM    DATA     BYTE      I2CSTA
      000000A5H   SFRSYM    DATA     BYTE      IHCFGH
      000000E8H   SFRSYM    DATA     BYTE      EXIE
      000000D1H   SFRSYM    DATA     BYTE      PWMDUTH
      000000C7H   SFRSYM    DATA     BYTE      TKIF
      000000A7H   SFRSYM    DATA     BYTE      ILCFGH
      000000A4H   SFRSYM    DATA     BYTE      IHCFGL
      0000008FH   SFRSYM    DATA     BYTE      IT0CON
      00000080H   SFRSYM    DATA     BIT       P00
      000000ECH   SFRSYM    DATA     BYTE      RTAH
      000000DFH   SFRSYM    DATA     BYTE      PWMDUTL
      0000008EH   SFRSYM    DATA     BYTE      IT1CON
      00000090H   SFRSYM    DATA     BIT       P10
LX51 LINKER/LOCATER V4.66.66.0                                                        08/04/2020  11:17:01  PAGE 15


      00000080H.1 SFRSYM    DATA     BIT       P01
      0000009DH   SFRSYM    DATA     BYTE      S1RELH
      00000087H   SFRSYM    DATA     BYTE      PCON
      000000A0H   SFRSYM    DATA     BIT       P20
      00000090H.1 SFRSYM    DATA     BIT       P11
      00000080H.2 SFRSYM    DATA     BIT       P02
      000000E8H   SFRSYM    DATA     BIT       INT2EN
      000000F4H   SFRSYM    DATA     BYTE      RTCH
      000000B0H   SFRSYM    DATA     BIT       P30
      000000A0H.1 SFRSYM    DATA     BIT       P21
      00000090H.2 SFRSYM    DATA     BIT       P12
      00000080H.3 SFRSYM    DATA     BIT       P03
      000000E8H.1 SFRSYM    DATA     BIT       INT3EN
      000000A6H   SFRSYM    DATA     BYTE      ILCFGL
      000000B0H.1 SFRSYM    DATA     BIT       P31
      000000A0H.2 SFRSYM    DATA     BIT       P22
      00000090H.3 SFRSYM    DATA     BIT       P13
      00000080H.4 SFRSYM    DATA     BIT       P04
      000000E8H.2 SFRSYM    DATA     BIT       INT4EN
      000000B0H.2 SFRSYM    DATA     BIT       P32
      000000A0H.3 SFRSYM    DATA     BIT       P23
      00000090H.4 SFRSYM    DATA     BIT       P14
      00000080H.5 SFRSYM    DATA     BIT       P05
      000000E8H.3 SFRSYM    DATA     BIT       INT5EN
      000000EBH   SFRSYM    DATA     BYTE      RTAM
      0000009CH   SFRSYM    DATA     BYTE      S1RELL
      00000089H   SFRSYM    DATA     BYTE      TMOD
      00000088H   SFRSYM    DATA     BYTE      TCON
      000000B0H.3 SFRSYM    DATA     BIT       P33
      000000A0H.4 SFRSYM    DATA     BIT       P24
      00000090H.5 SFRSYM    DATA     BIT       P15
      00000080H.6 SFRSYM    DATA     BIT       P06
      000000E8H.4 SFRSYM    DATA     BIT       INT6EN
      000000B0H.4 SFRSYM    DATA     BIT       P34
      000000A0H.5 SFRSYM    DATA     BIT       P25
      00000090H.6 SFRSYM    DATA     BIT       P16
      00000080H.7 SFRSYM    DATA     BIT       P07
      000000E8H.5 SFRSYM    DATA     BIT       INT7EN
      000000C8H.2 SFRSYM    DATA     BIT       UCKS
      000000F8H   SFRSYM    DATA     BYTE      EXIP
      000000F3H   SFRSYM    DATA     BYTE      RTCM
      000000B0H.5 SFRSYM    DATA     BIT       P35
      000000A0H.6 SFRSYM    DATA     BIT       P26
      00000090H.7 SFRSYM    DATA     BIT       P17
      000000E8H.6 SFRSYM    DATA     BIT       INT8EN
      000000B0H.6 SFRSYM    DATA     BIT       P36
      000000E8H.7 SFRSYM    DATA     BIT       INT9EN
      000000B0H.7 SFRSYM    DATA     BIT       P37
      000000EAH   SFRSYM    DATA     BYTE      RTAS
      00000095H   SFRSYM    DATA     BYTE      RCTAGH
      000000F2H   SFRSYM    DATA     BYTE      RTCS
      00000088H.1 SFRSYM    DATA     BIT       IE0
      00000088H.3 SFRSYM    DATA     BIT       IE1
      00000094H   SFRSYM    DATA     BYTE      RCTAGL
      000000F7H   SFRSYM    DATA     BYTE      RSTF
      000000F0H   SFRSYM    DATA     BYTE      B
      000000DCH   SFRSYM    DATA     BYTE      PWMCFG
      000000D2H   SFRSYM    DATA     BYTE      PWMAIF
      000000E0H   SFRSYM    DATA     BYTE      ACC
      000000D3H   SFRSYM    DATA     BYTE      PWMBIF
      0000009FH   SFRSYM    DATA     BYTE      RCMSHH
      000000A8H.4 SFRSYM    DATA     BIT       ES0
      000000EFH   SFRSYM    DATA     BYTE      LVDCON
      000000D4H   SFRSYM    DATA     BYTE      PWMCIF
      000000A8H.1 SFRSYM    DATA     BIT       ET0
LX51 LINKER/LOCATER V4.66.66.0                                                        08/04/2020  11:17:01  PAGE 16


      000000A8H.6 SFRSYM    DATA     BIT       ES1
      000000A8H.3 SFRSYM    DATA     BIT       ET1
      00000088H.5 SFRSYM    DATA     BIT       TF0
      000000FDH   SFRSYM    DATA     BYTE      IDLSTH
      000000ADH   SFRSYM    DATA     BYTE      PLLCON
      000000A8H.5 SFRSYM    DATA     BIT       ET2
      00000098H   SFRSYM    DATA     BIT       RI0
      00000088H.7 SFRSYM    DATA     BIT       TF1
      000000D6H   SFRSYM    DATA     BYTE      TKMINF
      0000009EH   SFRSYM    DATA     BYTE      RCMSHL
      00000097H   SFRSYM    DATA     BYTE      RCMSLH
      000000C8H.7 SFRSYM    DATA     BIT       TF2
      00000098H.2 SFRSYM    DATA     BIT       RB8
      0000008CH   SFRSYM    DATA     BYTE      TH0
      000000A8H   SFRSYM    DATA     BIT       EX0
      00000098H.1 SFRSYM    DATA     BIT       TI0
      00000088H   SFRSYM    DATA     BIT       IT0
      000000D5H   SFRSYM    DATA     BYTE      TKMAXF
      0000008DH   SFRSYM    DATA     BYTE      TH1
      000000A8H.2 SFRSYM    DATA     BIT       EX1
      00000098H.3 SFRSYM    DATA     BIT       TB8
      00000088H.2 SFRSYM    DATA     BIT       IT1
      000000FCH   SFRSYM    DATA     BYTE      IDLSTL
      000000CDH   SFRSYM    DATA     BYTE      TH2
      000000D0H   SFRSYM    DATA     BIT       P
      00000096H   SFRSYM    DATA     BYTE      RCMSLL
      00000098H.7 SFRSYM    DATA     BIT       SM0
      0000008AH   SFRSYM    DATA     BYTE      TL0
      00000098H.6 SFRSYM    DATA     BIT       SM1
      000000E5H   SFRSYM    DATA     BYTE      LXDIVH
      0000008BH   SFRSYM    DATA     BYTE      TL1
      00000098H.5 SFRSYM    DATA     BIT       SM2
      000000CCH   SFRSYM    DATA     BYTE      TL2
      000000B8H.4 SFRSYM    DATA     BIT       PS0
      000000B8H.1 SFRSYM    DATA     BIT       PT0
      000000B8H.6 SFRSYM    DATA     BIT       PS1
      000000B4H   SFRSYM    DATA     BYTE      I2CCR
      000000B8H.3 SFRSYM    DATA     BIT       PT1
      000000D0H.3 SFRSYM    DATA     BIT       RS0
      000000E4H   SFRSYM    DATA     BYTE      LXDIVL
      000000BDH   SFRSYM    DATA     BYTE      ADCDH
      000000B8H.5 SFRSYM    DATA     BIT       PT2
      00000088H.4 SFRSYM    DATA     BIT       TR0
      000000D0H.4 SFRSYM    DATA     BIT       RS1
      000000DBH   SFRSYM    DATA     BYTE      PWMCON
      00000088H.6 SFRSYM    DATA     BIT       TR1
      000000ACH   SFRSYM    DATA     BYTE      WDVTHH
      000000C8H.6 SFRSYM    DATA     BIT       TR2
      000000B8H   SFRSYM    DATA     BIT       PX0
      000000B8H.2 SFRSYM    DATA     BIT       PX1
      000000BCH   SFRSYM    DATA     BYTE      ADCDL
      000000ABH   SFRSYM    DATA     BYTE      WDVTHL
      000000D9H   SFRSYM    DATA     BYTE      PWMUPD
      00000099H   SFRSYM    DATA     BYTE      S0BUF
      0000009BH   SFRSYM    DATA     BYTE      S1BUF
      00000098H   SFRSYM    DATA     BYTE      S0CON
      00000098H.4 SFRSYM    DATA     BIT       REN
      0000009AH   SFRSYM    DATA     BYTE      S1CON
      000000B9H   SFRSYM    DATA     BYTE      ADCON
      000000D0H.1 SFRSYM    DATA     BIT       DPS
      000000C9H   SFRSYM    DATA     BYTE      T2MOD
      000000C8H   SFRSYM    DATA     BYTE      T2CON
      000000FFH   SFRSYM    DATA     BYTE      STPSTH
      000000BFH   SFRSYM    DATA     BYTE      CKMIF
      000000AFH   SFRSYM    DATA     BYTE      TFCFG
LX51 LINKER/LOCATER V4.66.66.0                                                        08/04/2020  11:17:01  PAGE 17


      000000FEH   SFRSYM    DATA     BYTE      STPSTL
      000000C6H   SFRSYM    DATA     BYTE      ATKCH
      000000A1H   SFRSYM    DATA     BYTE      CKCON
      000000C5H   SFRSYM    DATA     BYTE      ATKCL
      000000C2H   SFRSYM    DATA     BYTE      TKCFG
      00000093H   SFRSYM    DATA     BYTE      VCKDH
      000000A3H   SFRSYM    DATA     BYTE      CKDIV
      000000A2H   SFRSYM    DATA     BYTE      CKSEL
      000000D0H.5 SFRSYM    DATA     BIT       F0
      000000E2H   SFRSYM    DATA     BYTE      LXCFG
      000000AAH   SFRSYM    DATA     BYTE      WDFLG
      00000092H   SFRSYM    DATA     BYTE      VCKDL
      000000FBH   SFRSYM    DATA     BYTE      EPCON
      000000F6H   SFRSYM    DATA     BYTE      RTCDH
      00000091H   SFRSYM    DATA     BYTE      RCCON
      000000E7H   SFRSYM    DATA     BYTE      ATKNH
      000000EEH   SFRSYM    DATA     BYTE      RTCIF
      000000C0H   SFRSYM    DATA     BYTE      INDEX
      000000BEH   SFRSYM    DATA     BYTE      CKMON
      000000F5H   SFRSYM    DATA     BYTE      RTCDL
      000000D0H   SFRSYM    DATA     BYTE      PSW
      000000E6H   SFRSYM    DATA     BYTE      ATKNL
      000000A9H   SFRSYM    DATA     BYTE      WDCON

      01000D52H   BLOCK     CODE     ---       LVL=0
      01000D52H   BLOCK     CODE     NEAR LAB  LVL=1
      00000007H   SYMBOL    DATA     BYTE      value
      ---         BLOCKEND  ---      ---       LVL=1
      01000D52H   LINE      CODE     ---       #47
      01000D52H   LINE      CODE     ---       #48
      01000D52H   LINE      CODE     ---       #50
      01000D58H   LINE      CODE     ---       #51
      01000D5DH   LINE      CODE     ---       #52
      01000D63H   LINE      CODE     ---       #53
      01000D69H   LINE      CODE     ---       #54
      01000D6CH   LINE      CODE     ---       #55
      01000D71H   LINE      CODE     ---       #56
      01000D71H   LINE      CODE     ---       #57
      ---         BLOCKEND  ---      ---       LVL=0

      01000D30H   BLOCK     CODE     ---       LVL=0
      01000D30H   LINE      CODE     ---       #58
      01000D30H   LINE      CODE     ---       #59
      01000D30H   LINE      CODE     ---       #61
      01000D33H   LINE      CODE     ---       #64
      01000D38H   LINE      CODE     ---       #75
      01000D3BH   LINE      CODE     ---       #76
      01000D3EH   LINE      CODE     ---       #82
      01000D41H   LINE      CODE     ---       #83
      01000D44H   LINE      CODE     ---       #84
      01000D47H   LINE      CODE     ---       #87
      01000D51H   LINE      CODE     ---       #88
      ---         BLOCKEND  ---      ---       LVL=0

      01000D72H   BLOCK     CODE     ---       LVL=0
      01000D72H   LINE      CODE     ---       #89
      01000D72H   LINE      CODE     ---       #90
      01000D72H   LINE      CODE     ---       #91
      01000D75H   LINE      CODE     ---       #93
      01000D77H   LINE      CODE     ---       #96
      01000D7AH   LINE      CODE     ---       #99
      01000D7AH   LINE      CODE     ---       #100
      01000D7AH   LINE      CODE     ---       #102
      01000D7DH   LINE      CODE     ---       #104
      01000D7DH   LINE      CODE     ---       #105
LX51 LINKER/LOCATER V4.66.66.0                                                        08/04/2020  11:17:01  PAGE 18


      01000D7DH   LINE      CODE     ---       #107
      01000D7DH   LINE      CODE     ---       #108
      01000D81H   LINE      CODE     ---       #109
      01000D81H   LINE      CODE     ---       #111
      ---         BLOCKEND  ---      ---       LVL=0

      ---         MODULE    ---      ---       DELAY
      00000006H   SYMBOL    DATA     WORD      n
      00000003H   SYMBOL    DATA     BYTE      i
      00000082H   SYMBOL    DATA     WORD      n

      ---         MODULE    ---      ---       SYSTEM_CLOCK
      01000D0AH   PUBLIC    CODE     ---       _Sys_Clk_Set_PLL
      000000E3H   SFRSYM    DATA     BYTE      LXDAT
      000000C4H   SFRSYM    DATA     BYTE      TKCHS
      00000080H   SFRSYM    DATA     BYTE      P0
      000000C1H   SFRSYM    DATA     BYTE      TKCON
      00000090H   SFRSYM    DATA     BYTE      P1
      000000A0H   SFRSYM    DATA     BYTE      P2
      000000B0H   SFRSYM    DATA     BYTE      P3
      000000D0H.6 SFRSYM    DATA     BIT       AC
      000000A8H.7 SFRSYM    DATA     BIT       EA
      000000E1H   SFRSYM    DATA     BYTE      LXCON
      000000C8H   SFRSYM    DATA     BIT       T2P0
      000000C8H.1 SFRSYM    DATA     BIT       T2P1
      000000F1H   SFRSYM    DATA     BYTE      RTCON
      000000C8H.4 SFRSYM    DATA     BIT       T2R0
      000000D8H   SFRSYM    DATA     BYTE      PWMEN
      000000CFH   SFRSYM    DATA     BYTE      TKMSH
      00000086H   SFRSYM    DATA     BYTE      PWCON
      000000C8H.5 SFRSYM    DATA     BIT       T2R1
      000000CEH   SFRSYM    DATA     BYTE      TKMSL
      00000083H   SFRSYM    DATA     BYTE      DP0H
      000000A8H   SFRSYM    DATA     BYTE      IE
      00000085H   SFRSYM    DATA     BYTE      DP1H
      000000E9H   SFRSYM    DATA     BYTE      RTCSS
      00000082H   SFRSYM    DATA     BYTE      DP0L
      000000CBH   SFRSYM    DATA     BYTE      T2CH
      000000B3H   SFRSYM    DATA     BYTE      I2CADM
      00000084H   SFRSYM    DATA     BYTE      DP1L
      000000C8H.3 SFRSYM    DATA     BIT       T2IE
      000000C3H   SFRSYM    DATA     BYTE      TKMTS
      000000CAH   SFRSYM    DATA     BYTE      T2CL
      000000B2H   SFRSYM    DATA     BYTE      I2CADR
      000000B8H   SFRSYM    DATA     BYTE      IP
      000000B7H   SFRSYM    DATA     BYTE      I2CFLG
      000000B5H   SFRSYM    DATA     BYTE      I2CDAT
      000000EDH   SFRSYM    DATA     BYTE      RTMSS
      000000D0H.7 SFRSYM    DATA     BIT       CY
      000000BBH   SFRSYM    DATA     BYTE      ADCFGH
      000000DAH   SFRSYM    DATA     BYTE      PWMCMAX
      000000B1H   SFRSYM    DATA     BYTE      I2CCON
      000000DEH   SFRSYM    DATA     BYTE      PWMDIVH
      000000BAH   SFRSYM    DATA     BYTE      ADCFGL
      00000081H   SFRSYM    DATA     BYTE      SP
      000000F9H   SFRSYM    DATA     BYTE      EPIE
      000000D0H.2 SFRSYM    DATA     BIT       OV
      000000FAH   SFRSYM    DATA     BYTE      EPIF
      000000DDH   SFRSYM    DATA     BYTE      PWMDIVL
      000000B6H   SFRSYM    DATA     BYTE      I2CSTA
      000000A5H   SFRSYM    DATA     BYTE      IHCFGH
      000000E8H   SFRSYM    DATA     BYTE      EXIE
      000000D1H   SFRSYM    DATA     BYTE      PWMDUTH
      000000C7H   SFRSYM    DATA     BYTE      TKIF
      000000A7H   SFRSYM    DATA     BYTE      ILCFGH
LX51 LINKER/LOCATER V4.66.66.0                                                        08/04/2020  11:17:01  PAGE 19


      000000A4H   SFRSYM    DATA     BYTE      IHCFGL
      0000008FH   SFRSYM    DATA     BYTE      IT0CON
      00000080H   SFRSYM    DATA     BIT       P00
      000000ECH   SFRSYM    DATA     BYTE      RTAH
      000000DFH   SFRSYM    DATA     BYTE      PWMDUTL
      0000008EH   SFRSYM    DATA     BYTE      IT1CON
      00000090H   SFRSYM    DATA     BIT       P10
      00000080H.1 SFRSYM    DATA     BIT       P01
      0000009DH   SFRSYM    DATA     BYTE      S1RELH
      00000087H   SFRSYM    DATA     BYTE      PCON
      000000A0H   SFRSYM    DATA     BIT       P20
      00000090H.1 SFRSYM    DATA     BIT       P11
      00000080H.2 SFRSYM    DATA     BIT       P02
      000000E8H   SFRSYM    DATA     BIT       INT2EN
      000000F4H   SFRSYM    DATA     BYTE      RTCH
      000000B0H   SFRSYM    DATA     BIT       P30
      000000A0H.1 SFRSYM    DATA     BIT       P21
      00000090H.2 SFRSYM    DATA     BIT       P12
      00000080H.3 SFRSYM    DATA     BIT       P03
      000000E8H.1 SFRSYM    DATA     BIT       INT3EN
      000000A6H   SFRSYM    DATA     BYTE      ILCFGL
      000000B0H.1 SFRSYM    DATA     BIT       P31
      000000A0H.2 SFRSYM    DATA     BIT       P22
      00000090H.3 SFRSYM    DATA     BIT       P13
      00000080H.4 SFRSYM    DATA     BIT       P04
      000000E8H.2 SFRSYM    DATA     BIT       INT4EN
      000000B0H.2 SFRSYM    DATA     BIT       P32
      000000A0H.3 SFRSYM    DATA     BIT       P23
      00000090H.4 SFRSYM    DATA     BIT       P14
      00000080H.5 SFRSYM    DATA     BIT       P05
      000000E8H.3 SFRSYM    DATA     BIT       INT5EN
      000000EBH   SFRSYM    DATA     BYTE      RTAM
      0000009CH   SFRSYM    DATA     BYTE      S1RELL
      00000089H   SFRSYM    DATA     BYTE      TMOD
      00000088H   SFRSYM    DATA     BYTE      TCON
      000000B0H.3 SFRSYM    DATA     BIT       P33
      000000A0H.4 SFRSYM    DATA     BIT       P24
      00000090H.5 SFRSYM    DATA     BIT       P15
      00000080H.6 SFRSYM    DATA     BIT       P06
      000000E8H.4 SFRSYM    DATA     BIT       INT6EN
      000000B0H.4 SFRSYM    DATA     BIT       P34
      000000A0H.5 SFRSYM    DATA     BIT       P25
      00000090H.6 SFRSYM    DATA     BIT       P16
      00000080H.7 SFRSYM    DATA     BIT       P07
      000000E8H.5 SFRSYM    DATA     BIT       INT7EN
      000000C8H.2 SFRSYM    DATA     BIT       UCKS
      000000F8H   SFRSYM    DATA     BYTE      EXIP
      000000F3H   SFRSYM    DATA     BYTE      RTCM
      000000B0H.5 SFRSYM    DATA     BIT       P35
      000000A0H.6 SFRSYM    DATA     BIT       P26
      00000090H.7 SFRSYM    DATA     BIT       P17
      000000E8H.6 SFRSYM    DATA     BIT       INT8EN
      000000B0H.6 SFRSYM    DATA     BIT       P36
      000000E8H.7 SFRSYM    DATA     BIT       INT9EN
      000000B0H.7 SFRSYM    DATA     BIT       P37
      000000EAH   SFRSYM    DATA     BYTE      RTAS
      00000095H   SFRSYM    DATA     BYTE      RCTAGH
      000000F2H   SFRSYM    DATA     BYTE      RTCS
      00000088H.1 SFRSYM    DATA     BIT       IE0
      00000088H.3 SFRSYM    DATA     BIT       IE1
      00000094H   SFRSYM    DATA     BYTE      RCTAGL
      000000F7H   SFRSYM    DATA     BYTE      RSTF
      000000F0H   SFRSYM    DATA     BYTE      B
      000000DCH   SFRSYM    DATA     BYTE      PWMCFG
      000000D2H   SFRSYM    DATA     BYTE      PWMAIF
LX51 LINKER/LOCATER V4.66.66.0                                                        08/04/2020  11:17:01  PAGE 20


      000000E0H   SFRSYM    DATA     BYTE      ACC
      000000D3H   SFRSYM    DATA     BYTE      PWMBIF
      0000009FH   SFRSYM    DATA     BYTE      RCMSHH
      000000A8H.4 SFRSYM    DATA     BIT       ES0
      000000EFH   SFRSYM    DATA     BYTE      LVDCON
      000000D4H   SFRSYM    DATA     BYTE      PWMCIF
      000000A8H.1 SFRSYM    DATA     BIT       ET0
      000000A8H.6 SFRSYM    DATA     BIT       ES1
      000000A8H.3 SFRSYM    DATA     BIT       ET1
      00000088H.5 SFRSYM    DATA     BIT       TF0
      000000FDH   SFRSYM    DATA     BYTE      IDLSTH
      000000ADH   SFRSYM    DATA     BYTE      PLLCON
      000000A8H.5 SFRSYM    DATA     BIT       ET2
      00000098H   SFRSYM    DATA     BIT       RI0
      00000088H.7 SFRSYM    DATA     BIT       TF1
      000000D6H   SFRSYM    DATA     BYTE      TKMINF
      0000009EH   SFRSYM    DATA     BYTE      RCMSHL
      00000097H   SFRSYM    DATA     BYTE      RCMSLH
      000000C8H.7 SFRSYM    DATA     BIT       TF2
      00000098H.2 SFRSYM    DATA     BIT       RB8
      0000008CH   SFRSYM    DATA     BYTE      TH0
      000000A8H   SFRSYM    DATA     BIT       EX0
      00000098H.1 SFRSYM    DATA     BIT       TI0
      00000088H   SFRSYM    DATA     BIT       IT0
      000000D5H   SFRSYM    DATA     BYTE      TKMAXF
      0000008DH   SFRSYM    DATA     BYTE      TH1
      000000A8H.2 SFRSYM    DATA     BIT       EX1
      00000098H.3 SFRSYM    DATA     BIT       TB8
      00000088H.2 SFRSYM    DATA     BIT       IT1
      000000FCH   SFRSYM    DATA     BYTE      IDLSTL
      000000CDH   SFRSYM    DATA     BYTE      TH2
      000000D0H   SFRSYM    DATA     BIT       P
      00000096H   SFRSYM    DATA     BYTE      RCMSLL
      00000098H.7 SFRSYM    DATA     BIT       SM0
      0000008AH   SFRSYM    DATA     BYTE      TL0
      00000098H.6 SFRSYM    DATA     BIT       SM1
      000000E5H   SFRSYM    DATA     BYTE      LXDIVH
      0000008BH   SFRSYM    DATA     BYTE      TL1
      00000098H.5 SFRSYM    DATA     BIT       SM2
      000000CCH   SFRSYM    DATA     BYTE      TL2
      000000B8H.4 SFRSYM    DATA     BIT       PS0
      000000B8H.1 SFRSYM    DATA     BIT       PT0
      000000B8H.6 SFRSYM    DATA     BIT       PS1
      000000B4H   SFRSYM    DATA     BYTE      I2CCR
      000000B8H.3 SFRSYM    DATA     BIT       PT1
      000000D0H.3 SFRSYM    DATA     BIT       RS0
      000000E4H   SFRSYM    DATA     BYTE      LXDIVL
      000000BDH   SFRSYM    DATA     BYTE      ADCDH
      000000B8H.5 SFRSYM    DATA     BIT       PT2
      00000088H.4 SFRSYM    DATA     BIT       TR0
      000000D0H.4 SFRSYM    DATA     BIT       RS1
      000000DBH   SFRSYM    DATA     BYTE      PWMCON
      00000088H.6 SFRSYM    DATA     BIT       TR1
      000000ACH   SFRSYM    DATA     BYTE      WDVTHH
      000000C8H.6 SFRSYM    DATA     BIT       TR2
      000000B8H   SFRSYM    DATA     BIT       PX0
      000000B8H.2 SFRSYM    DATA     BIT       PX1
      000000BCH   SFRSYM    DATA     BYTE      ADCDL
      000000ABH   SFRSYM    DATA     BYTE      WDVTHL
      000000D9H   SFRSYM    DATA     BYTE      PWMUPD
      00000099H   SFRSYM    DATA     BYTE      S0BUF
      0000009BH   SFRSYM    DATA     BYTE      S1BUF
      00000098H   SFRSYM    DATA     BYTE      S0CON
      00000098H.4 SFRSYM    DATA     BIT       REN
      0000009AH   SFRSYM    DATA     BYTE      S1CON
LX51 LINKER/LOCATER V4.66.66.0                                                        08/04/2020  11:17:01  PAGE 21


      000000B9H   SFRSYM    DATA     BYTE      ADCON
      000000D0H.1 SFRSYM    DATA     BIT       DPS
      000000C9H   SFRSYM    DATA     BYTE      T2MOD
      000000C8H   SFRSYM    DATA     BYTE      T2CON
      000000FFH   SFRSYM    DATA     BYTE      STPSTH
      000000BFH   SFRSYM    DATA     BYTE      CKMIF
      000000AFH   SFRSYM    DATA     BYTE      TFCFG
      000000FEH   SFRSYM    DATA     BYTE      STPSTL
      000000C6H   SFRSYM    DATA     BYTE      ATKCH
      000000A1H   SFRSYM    DATA     BYTE      CKCON
      000000C5H   SFRSYM    DATA     BYTE      ATKCL
      000000C2H   SFRSYM    DATA     BYTE      TKCFG
      00000093H   SFRSYM    DATA     BYTE      VCKDH
      000000A3H   SFRSYM    DATA     BYTE      CKDIV
      000000A2H   SFRSYM    DATA     BYTE      CKSEL
      000000D0H.5 SFRSYM    DATA     BIT       F0
      000000E2H   SFRSYM    DATA     BYTE      LXCFG
      000000AAH   SFRSYM    DATA     BYTE      WDFLG
      00000092H   SFRSYM    DATA     BYTE      VCKDL
      000000FBH   SFRSYM    DATA     BYTE      EPCON
      000000F6H   SFRSYM    DATA     BYTE      RTCDH
      00000091H   SFRSYM    DATA     BYTE      RCCON
      000000E7H   SFRSYM    DATA     BYTE      ATKNH
      000000EEH   SFRSYM    DATA     BYTE      RTCIF
      000000C0H   SFRSYM    DATA     BYTE      INDEX
      000000BEH   SFRSYM    DATA     BYTE      CKMON
      000000F5H   SFRSYM    DATA     BYTE      RTCDL
      000000D0H   SFRSYM    DATA     BYTE      PSW
      000000E6H   SFRSYM    DATA     BYTE      ATKNL
      000000A9H   SFRSYM    DATA     BYTE      WDCON

      01000D0AH   BLOCK     CODE     ---       LVL=0
      00000007H   SYMBOL    DATA     BYTE      Multiple
      01000D0AH   LINE      CODE     ---       #69
      01000D0AH   LINE      CODE     ---       #70
      01000D0AH   LINE      CODE     ---       #71
      01000D16H   LINE      CODE     ---       #73
      01000D22H   LINE      CODE     ---       #74
      01000D27H   LINE      CODE     ---       #75
      01000D2FH   LINE      CODE     ---       #76
      ---         BLOCKEND  ---      ---       LVL=0

      ---         MODULE    ---      ---       UART
      000000E3H   SFRSYM    DATA     BYTE      LXDAT
      000000C4H   SFRSYM    DATA     BYTE      TKCHS
      00000080H   SFRSYM    DATA     BYTE      P0
      000000C1H   SFRSYM    DATA     BYTE      TKCON
      00000090H   SFRSYM    DATA     BYTE      P1
      000000A0H   SFRSYM    DATA     BYTE      P2
      000000B0H   SFRSYM    DATA     BYTE      P3
      000000D0H.6 SFRSYM    DATA     BIT       AC
      000000A8H.7 SFRSYM    DATA     BIT       EA
      000000E1H   SFRSYM    DATA     BYTE      LXCON
      000000C8H   SFRSYM    DATA     BIT       T2P0
      000000C8H.1 SFRSYM    DATA     BIT       T2P1
      000000F1H   SFRSYM    DATA     BYTE      RTCON
      000000C8H.4 SFRSYM    DATA     BIT       T2R0
      000000D8H   SFRSYM    DATA     BYTE      PWMEN
      000000CFH   SFRSYM    DATA     BYTE      TKMSH
      00000086H   SFRSYM    DATA     BYTE      PWCON
      000000C8H.5 SFRSYM    DATA     BIT       T2R1
      000000CEH   SFRSYM    DATA     BYTE      TKMSL
      00000083H   SFRSYM    DATA     BYTE      DP0H
      000000A8H   SFRSYM    DATA     BYTE      IE
      00000085H   SFRSYM    DATA     BYTE      DP1H
LX51 LINKER/LOCATER V4.66.66.0                                                        08/04/2020  11:17:01  PAGE 22


      000000E9H   SFRSYM    DATA     BYTE      RTCSS
      00000082H   SFRSYM    DATA     BYTE      DP0L
      000000CBH   SFRSYM    DATA     BYTE      T2CH
      000000B3H   SFRSYM    DATA     BYTE      I2CADM
      00000084H   SFRSYM    DATA     BYTE      DP1L
      000000C8H.3 SFRSYM    DATA     BIT       T2IE
      000000C3H   SFRSYM    DATA     BYTE      TKMTS
      000000CAH   SFRSYM    DATA     BYTE      T2CL
      000000B2H   SFRSYM    DATA     BYTE      I2CADR
      000000B8H   SFRSYM    DATA     BYTE      IP
      000000B7H   SFRSYM    DATA     BYTE      I2CFLG
      000000B5H   SFRSYM    DATA     BYTE      I2CDAT
      000000EDH   SFRSYM    DATA     BYTE      RTMSS
      000000D0H.7 SFRSYM    DATA     BIT       CY
      000000BBH   SFRSYM    DATA     BYTE      ADCFGH
      000000DAH   SFRSYM    DATA     BYTE      PWMCMAX
      000000B1H   SFRSYM    DATA     BYTE      I2CCON
      000000DEH   SFRSYM    DATA     BYTE      PWMDIVH
      000000BAH   SFRSYM    DATA     BYTE      ADCFGL
      00000081H   SFRSYM    DATA     BYTE      SP
      000000F9H   SFRSYM    DATA     BYTE      EPIE
      000000D0H.2 SFRSYM    DATA     BIT       OV
      000000FAH   SFRSYM    DATA     BYTE      EPIF
      000000DDH   SFRSYM    DATA     BYTE      PWMDIVL
      000000B6H   SFRSYM    DATA     BYTE      I2CSTA
      000000A5H   SFRSYM    DATA     BYTE      IHCFGH
      000000E8H   SFRSYM    DATA     BYTE      EXIE
      000000D1H   SFRSYM    DATA     BYTE      PWMDUTH
      000000C7H   SFRSYM    DATA     BYTE      TKIF
      000000A7H   SFRSYM    DATA     BYTE      ILCFGH
      000000A4H   SFRSYM    DATA     BYTE      IHCFGL
      0000008FH   SFRSYM    DATA     BYTE      IT0CON
      00000080H   SFRSYM    DATA     BIT       P00
      000000ECH   SFRSYM    DATA     BYTE      RTAH
      000000DFH   SFRSYM    DATA     BYTE      PWMDUTL
      0000008EH   SFRSYM    DATA     BYTE      IT1CON
      00000090H   SFRSYM    DATA     BIT       P10
      00000080H.1 SFRSYM    DATA     BIT       P01
      0000009DH   SFRSYM    DATA     BYTE      S1RELH
      00000087H   SFRSYM    DATA     BYTE      PCON
      000000A0H   SFRSYM    DATA     BIT       P20
      00000090H.1 SFRSYM    DATA     BIT       P11
      00000080H.2 SFRSYM    DATA     BIT       P02
      000000E8H   SFRSYM    DATA     BIT       INT2EN
      000000F4H   SFRSYM    DATA     BYTE      RTCH
      000000B0H   SFRSYM    DATA     BIT       P30
      000000A0H.1 SFRSYM    DATA     BIT       P21
      00000090H.2 SFRSYM    DATA     BIT       P12
      00000080H.3 SFRSYM    DATA     BIT       P03
      000000E8H.1 SFRSYM    DATA     BIT       INT3EN
      000000A6H   SFRSYM    DATA     BYTE      ILCFGL
      000000B0H.1 SFRSYM    DATA     BIT       P31
      000000A0H.2 SFRSYM    DATA     BIT       P22
      00000090H.3 SFRSYM    DATA     BIT       P13
      00000080H.4 SFRSYM    DATA     BIT       P04
      000000E8H.2 SFRSYM    DATA     BIT       INT4EN
      000000B0H.2 SFRSYM    DATA     BIT       P32
      000000A0H.3 SFRSYM    DATA     BIT       P23
      00000090H.4 SFRSYM    DATA     BIT       P14
      00000080H.5 SFRSYM    DATA     BIT       P05
      000000E8H.3 SFRSYM    DATA     BIT       INT5EN
      000000EBH   SFRSYM    DATA     BYTE      RTAM
      0000009CH   SFRSYM    DATA     BYTE      S1RELL
      00000089H   SFRSYM    DATA     BYTE      TMOD
      00000088H   SFRSYM    DATA     BYTE      TCON
LX51 LINKER/LOCATER V4.66.66.0                                                        08/04/2020  11:17:01  PAGE 23


      000000B0H.3 SFRSYM    DATA     BIT       P33
      000000A0H.4 SFRSYM    DATA     BIT       P24
      00000090H.5 SFRSYM    DATA     BIT       P15
      00000080H.6 SFRSYM    DATA     BIT       P06
      000000E8H.4 SFRSYM    DATA     BIT       INT6EN
      000000B0H.4 SFRSYM    DATA     BIT       P34
      000000A0H.5 SFRSYM    DATA     BIT       P25
      00000090H.6 SFRSYM    DATA     BIT       P16
      00000080H.7 SFRSYM    DATA     BIT       P07
      000000E8H.5 SFRSYM    DATA     BIT       INT7EN
      000000C8H.2 SFRSYM    DATA     BIT       UCKS
      000000F8H   SFRSYM    DATA     BYTE      EXIP
      000000F3H   SFRSYM    DATA     BYTE      RTCM
      000000B0H.5 SFRSYM    DATA     BIT       P35
      000000A0H.6 SFRSYM    DATA     BIT       P26
      00000090H.7 SFRSYM    DATA     BIT       P17
      000000E8H.6 SFRSYM    DATA     BIT       INT8EN
      000000B0H.6 SFRSYM    DATA     BIT       P36
      000000E8H.7 SFRSYM    DATA     BIT       INT9EN
      000000B0H.7 SFRSYM    DATA     BIT       P37
      000000EAH   SFRSYM    DATA     BYTE      RTAS
      00000095H   SFRSYM    DATA     BYTE      RCTAGH
      000000F2H   SFRSYM    DATA     BYTE      RTCS
      00000088H.1 SFRSYM    DATA     BIT       IE0
      00000088H.3 SFRSYM    DATA     BIT       IE1
      00000094H   SFRSYM    DATA     BYTE      RCTAGL
      000000F7H   SFRSYM    DATA     BYTE      RSTF
      000000F0H   SFRSYM    DATA     BYTE      B
      000000DCH   SFRSYM    DATA     BYTE      PWMCFG
      000000D2H   SFRSYM    DATA     BYTE      PWMAIF
      000000E0H   SFRSYM    DATA     BYTE      ACC
      000000D3H   SFRSYM    DATA     BYTE      PWMBIF
      0000009FH   SFRSYM    DATA     BYTE      RCMSHH
      000000A8H.4 SFRSYM    DATA     BIT       ES0
      000000EFH   SFRSYM    DATA     BYTE      LVDCON
      000000D4H   SFRSYM    DATA     BYTE      PWMCIF
      000000A8H.1 SFRSYM    DATA     BIT       ET0
      000000A8H.6 SFRSYM    DATA     BIT       ES1
      000000A8H.3 SFRSYM    DATA     BIT       ET1
      00000088H.5 SFRSYM    DATA     BIT       TF0
      000000FDH   SFRSYM    DATA     BYTE      IDLSTH
      000000ADH   SFRSYM    DATA     BYTE      PLLCON
      000000A8H.5 SFRSYM    DATA     BIT       ET2
      00000098H   SFRSYM    DATA     BIT       RI0
      00000088H.7 SFRSYM    DATA     BIT       TF1
      000000D6H   SFRSYM    DATA     BYTE      TKMINF
      0000009EH   SFRSYM    DATA     BYTE      RCMSHL
      00000097H   SFRSYM    DATA     BYTE      RCMSLH
      000000C8H.7 SFRSYM    DATA     BIT       TF2
      00000098H.2 SFRSYM    DATA     BIT       RB8
      0000008CH   SFRSYM    DATA     BYTE      TH0
      000000A8H   SFRSYM    DATA     BIT       EX0
      00000098H.1 SFRSYM    DATA     BIT       TI0
      00000088H   SFRSYM    DATA     BIT       IT0
      000000D5H   SFRSYM    DATA     BYTE      TKMAXF
      0000008DH   SFRSYM    DATA     BYTE      TH1
      000000A8H.2 SFRSYM    DATA     BIT       EX1
      00000098H.3 SFRSYM    DATA     BIT       TB8
      00000088H.2 SFRSYM    DATA     BIT       IT1
      000000FCH   SFRSYM    DATA     BYTE      IDLSTL
      000000CDH   SFRSYM    DATA     BYTE      TH2
      000000D0H   SFRSYM    DATA     BIT       P
      00000096H   SFRSYM    DATA     BYTE      RCMSLL
      00000098H.7 SFRSYM    DATA     BIT       SM0
      0000008AH   SFRSYM    DATA     BYTE      TL0
LX51 LINKER/LOCATER V4.66.66.0                                                        08/04/2020  11:17:01  PAGE 24


      00000098H.6 SFRSYM    DATA     BIT       SM1
      000000E5H   SFRSYM    DATA     BYTE      LXDIVH
      0000008BH   SFRSYM    DATA     BYTE      TL1
      00000098H.5 SFRSYM    DATA     BIT       SM2
      000000CCH   SFRSYM    DATA     BYTE      TL2
      000000B8H.4 SFRSYM    DATA     BIT       PS0
      000000B8H.1 SFRSYM    DATA     BIT       PT0
      000000B8H.6 SFRSYM    DATA     BIT       PS1
      000000B4H   SFRSYM    DATA     BYTE      I2CCR
      000000B8H.3 SFRSYM    DATA     BIT       PT1
      000000D0H.3 SFRSYM    DATA     BIT       RS0
      000000E4H   SFRSYM    DATA     BYTE      LXDIVL
      000000BDH   SFRSYM    DATA     BYTE      ADCDH
      000000B8H.5 SFRSYM    DATA     BIT       PT2
      00000088H.4 SFRSYM    DATA     BIT       TR0
      000000D0H.4 SFRSYM    DATA     BIT       RS1
      000000DBH   SFRSYM    DATA     BYTE      PWMCON
      00000088H.6 SFRSYM    DATA     BIT       TR1
      000000ACH   SFRSYM    DATA     BYTE      WDVTHH
      000000C8H.6 SFRSYM    DATA     BIT       TR2
      000000B8H   SFRSYM    DATA     BIT       PX0
      000000B8H.2 SFRSYM    DATA     BIT       PX1
      000000BCH   SFRSYM    DATA     BYTE      ADCDL
      000000ABH   SFRSYM    DATA     BYTE      WDVTHL
      000000D9H   SFRSYM    DATA     BYTE      PWMUPD
      00000099H   SFRSYM    DATA     BYTE      S0BUF
      0000009BH   SFRSYM    DATA     BYTE      S1BUF
      00000098H   SFRSYM    DATA     BYTE      S0CON
      00000098H.4 SFRSYM    DATA     BIT       REN
      0000009AH   SFRSYM    DATA     BYTE      S1CON
      000000B9H   SFRSYM    DATA     BYTE      ADCON
      000000D0H.1 SFRSYM    DATA     BIT       DPS
      000000C9H   SFRSYM    DATA     BYTE      T2MOD
      000000C8H   SFRSYM    DATA     BYTE      T2CON
      000000FFH   SFRSYM    DATA     BYTE      STPSTH
      000000BFH   SFRSYM    DATA     BYTE      CKMIF
      000000AFH   SFRSYM    DATA     BYTE      TFCFG
      000000FEH   SFRSYM    DATA     BYTE      STPSTL
      000000C6H   SFRSYM    DATA     BYTE      ATKCH
      000000A1H   SFRSYM    DATA     BYTE      CKCON
      000000C5H   SFRSYM    DATA     BYTE      ATKCL
      000000C2H   SFRSYM    DATA     BYTE      TKCFG
      00000093H   SFRSYM    DATA     BYTE      VCKDH
      000000A3H   SFRSYM    DATA     BYTE      CKDIV
      000000A2H   SFRSYM    DATA     BYTE      CKSEL
      000000D0H.5 SFRSYM    DATA     BIT       F0
      000000E2H   SFRSYM    DATA     BYTE      LXCFG
      000000AAH   SFRSYM    DATA     BYTE      WDFLG
      00000092H   SFRSYM    DATA     BYTE      VCKDL
      000000FBH   SFRSYM    DATA     BYTE      EPCON
      000000F6H   SFRSYM    DATA     BYTE      RTCDH
      00000091H   SFRSYM    DATA     BYTE      RCCON
      000000E7H   SFRSYM    DATA     BYTE      ATKNH
      000000EEH   SFRSYM    DATA     BYTE      RTCIF
      000000C0H   SFRSYM    DATA     BYTE      INDEX
      000000BEH   SFRSYM    DATA     BYTE      CKMON
      000000F5H   SFRSYM    DATA     BYTE      RTCDL
      000000D0H   SFRSYM    DATA     BYTE      PSW
      000000E6H   SFRSYM    DATA     BYTE      ATKNL
      000000A9H   SFRSYM    DATA     BYTE      WDCON

      ---         MODULE    ---      ---       INTERRUPT
      01000003H   PUBLIC    CODE     ---       INT6_ISR
      01000BADH   PUBLIC    CODE     ---       INT3_ISR
      01000AB4H   PUBLIC    CODE     ---       INT8_ISR
LX51 LINKER/LOCATER V4.66.66.0                                                        08/04/2020  11:17:01  PAGE 25


      000000E3H   SFRSYM    DATA     BYTE      LXDAT
      000000C4H   SFRSYM    DATA     BYTE      TKCHS
      00000080H   SFRSYM    DATA     BYTE      P0
      000000C1H   SFRSYM    DATA     BYTE      TKCON
      00000090H   SFRSYM    DATA     BYTE      P1
      000000A0H   SFRSYM    DATA     BYTE      P2
      000000B0H   SFRSYM    DATA     BYTE      P3
      000000D0H.6 SFRSYM    DATA     BIT       AC
      000000A8H.7 SFRSYM    DATA     BIT       EA
      000000E1H   SFRSYM    DATA     BYTE      LXCON
      000000C8H   SFRSYM    DATA     BIT       T2P0
      000000C8H.1 SFRSYM    DATA     BIT       T2P1
      000000F1H   SFRSYM    DATA     BYTE      RTCON
      000000C8H.4 SFRSYM    DATA     BIT       T2R0
      000000D8H   SFRSYM    DATA     BYTE      PWMEN
      000000CFH   SFRSYM    DATA     BYTE      TKMSH
      00000086H   SFRSYM    DATA     BYTE      PWCON
      000000C8H.5 SFRSYM    DATA     BIT       T2R1
      000000CEH   SFRSYM    DATA     BYTE      TKMSL
      00000083H   SFRSYM    DATA     BYTE      DP0H
      000000A8H   SFRSYM    DATA     BYTE      IE
      00000085H   SFRSYM    DATA     BYTE      DP1H
      000000E9H   SFRSYM    DATA     BYTE      RTCSS
      00000082H   SFRSYM    DATA     BYTE      DP0L
      000000CBH   SFRSYM    DATA     BYTE      T2CH
      000000B3H   SFRSYM    DATA     BYTE      I2CADM
      00000084H   SFRSYM    DATA     BYTE      DP1L
      000000C8H.3 SFRSYM    DATA     BIT       T2IE
      000000C3H   SFRSYM    DATA     BYTE      TKMTS
      000000CAH   SFRSYM    DATA     BYTE      T2CL
      000000B2H   SFRSYM    DATA     BYTE      I2CADR
      000000B8H   SFRSYM    DATA     BYTE      IP
      000000B7H   SFRSYM    DATA     BYTE      I2CFLG
      000000B5H   SFRSYM    DATA     BYTE      I2CDAT
      000000EDH   SFRSYM    DATA     BYTE      RTMSS
      000000D0H.7 SFRSYM    DATA     BIT       CY
      000000BBH   SFRSYM    DATA     BYTE      ADCFGH
      000000DAH   SFRSYM    DATA     BYTE      PWMCMAX
      000000B1H   SFRSYM    DATA     BYTE      I2CCON
      000000DEH   SFRSYM    DATA     BYTE      PWMDIVH
      000000BAH   SFRSYM    DATA     BYTE      ADCFGL
      00000081H   SFRSYM    DATA     BYTE      SP
      000000F9H   SFRSYM    DATA     BYTE      EPIE
      000000D0H.2 SFRSYM    DATA     BIT       OV
      000000FAH   SFRSYM    DATA     BYTE      EPIF
      000000DDH   SFRSYM    DATA     BYTE      PWMDIVL
      000000B6H   SFRSYM    DATA     BYTE      I2CSTA
      000000A5H   SFRSYM    DATA     BYTE      IHCFGH
      000000E8H   SFRSYM    DATA     BYTE      EXIE
      000000D1H   SFRSYM    DATA     BYTE      PWMDUTH
      000000C7H   SFRSYM    DATA     BYTE      TKIF
      000000A7H   SFRSYM    DATA     BYTE      ILCFGH
      000000A4H   SFRSYM    DATA     BYTE      IHCFGL
      0000008FH   SFRSYM    DATA     BYTE      IT0CON
      00000080H   SFRSYM    DATA     BIT       P00
      000000ECH   SFRSYM    DATA     BYTE      RTAH
      000000DFH   SFRSYM    DATA     BYTE      PWMDUTL
      0000008EH   SFRSYM    DATA     BYTE      IT1CON
      00000090H   SFRSYM    DATA     BIT       P10
      00000080H.1 SFRSYM    DATA     BIT       P01
      0000009DH   SFRSYM    DATA     BYTE      S1RELH
      00000087H   SFRSYM    DATA     BYTE      PCON
      000000A0H   SFRSYM    DATA     BIT       P20
      00000090H.1 SFRSYM    DATA     BIT       P11
      00000080H.2 SFRSYM    DATA     BIT       P02
LX51 LINKER/LOCATER V4.66.66.0                                                        08/04/2020  11:17:01  PAGE 26


      000000E8H   SFRSYM    DATA     BIT       INT2EN
      000000F4H   SFRSYM    DATA     BYTE      RTCH
      000000B0H   SFRSYM    DATA     BIT       P30
      000000A0H.1 SFRSYM    DATA     BIT       P21
      00000090H.2 SFRSYM    DATA     BIT       P12
      00000080H.3 SFRSYM    DATA     BIT       P03
      000000E8H.1 SFRSYM    DATA     BIT       INT3EN
      000000A6H   SFRSYM    DATA     BYTE      ILCFGL
      000000B0H.1 SFRSYM    DATA     BIT       P31
      000000A0H.2 SFRSYM    DATA     BIT       P22
      00000090H.3 SFRSYM    DATA     BIT       P13
      00000080H.4 SFRSYM    DATA     BIT       P04
      000000E8H.2 SFRSYM    DATA     BIT       INT4EN
      000000B0H.2 SFRSYM    DATA     BIT       P32
      000000A0H.3 SFRSYM    DATA     BIT       P23
      00000090H.4 SFRSYM    DATA     BIT       P14
      00000080H.5 SFRSYM    DATA     BIT       P05
      000000E8H.3 SFRSYM    DATA     BIT       INT5EN
      000000EBH   SFRSYM    DATA     BYTE      RTAM
      0000009CH   SFRSYM    DATA     BYTE      S1RELL
      00000089H   SFRSYM    DATA     BYTE      TMOD
      00000088H   SFRSYM    DATA     BYTE      TCON
      000000B0H.3 SFRSYM    DATA     BIT       P33
      000000A0H.4 SFRSYM    DATA     BIT       P24
      00000090H.5 SFRSYM    DATA     BIT       P15
      00000080H.6 SFRSYM    DATA     BIT       P06
      000000E8H.4 SFRSYM    DATA     BIT       INT6EN
      000000B0H.4 SFRSYM    DATA     BIT       P34
      000000A0H.5 SFRSYM    DATA     BIT       P25
      00000090H.6 SFRSYM    DATA     BIT       P16
      00000080H.7 SFRSYM    DATA     BIT       P07
      000000E8H.5 SFRSYM    DATA     BIT       INT7EN
      000000C8H.2 SFRSYM    DATA     BIT       UCKS
      000000F8H   SFRSYM    DATA     BYTE      EXIP
      000000F3H   SFRSYM    DATA     BYTE      RTCM
      000000B0H.5 SFRSYM    DATA     BIT       P35
      000000A0H.6 SFRSYM    DATA     BIT       P26
      00000090H.7 SFRSYM    DATA     BIT       P17
      000000E8H.6 SFRSYM    DATA     BIT       INT8EN
      000000B0H.6 SFRSYM    DATA     BIT       P36
      000000E8H.7 SFRSYM    DATA     BIT       INT9EN
      000000B0H.7 SFRSYM    DATA     BIT       P37
      000000EAH   SFRSYM    DATA     BYTE      RTAS
      00000095H   SFRSYM    DATA     BYTE      RCTAGH
      000000F2H   SFRSYM    DATA     BYTE      RTCS
      00000088H.1 SFRSYM    DATA     BIT       IE0
      00000088H.3 SFRSYM    DATA     BIT       IE1
      00000094H   SFRSYM    DATA     BYTE      RCTAGL
      000000F7H   SFRSYM    DATA     BYTE      RSTF
      000000F0H   SFRSYM    DATA     BYTE      B
      000000DCH   SFRSYM    DATA     BYTE      PWMCFG
      000000D2H   SFRSYM    DATA     BYTE      PWMAIF
      000000E0H   SFRSYM    DATA     BYTE      ACC
      000000D3H   SFRSYM    DATA     BYTE      PWMBIF
      0000009FH   SFRSYM    DATA     BYTE      RCMSHH
      000000A8H.4 SFRSYM    DATA     BIT       ES0
      000000EFH   SFRSYM    DATA     BYTE      LVDCON
      000000D4H   SFRSYM    DATA     BYTE      PWMCIF
      000000A8H.1 SFRSYM    DATA     BIT       ET0
      000000A8H.6 SFRSYM    DATA     BIT       ES1
      000000A8H.3 SFRSYM    DATA     BIT       ET1
      00000088H.5 SFRSYM    DATA     BIT       TF0
      000000FDH   SFRSYM    DATA     BYTE      IDLSTH
      000000ADH   SFRSYM    DATA     BYTE      PLLCON
      000000A8H.5 SFRSYM    DATA     BIT       ET2
LX51 LINKER/LOCATER V4.66.66.0                                                        08/04/2020  11:17:01  PAGE 27


      00000098H   SFRSYM    DATA     BIT       RI0
      00000088H.7 SFRSYM    DATA     BIT       TF1
      000000D6H   SFRSYM    DATA     BYTE      TKMINF
      0000009EH   SFRSYM    DATA     BYTE      RCMSHL
      00000097H   SFRSYM    DATA     BYTE      RCMSLH
      000000C8H.7 SFRSYM    DATA     BIT       TF2
      00000098H.2 SFRSYM    DATA     BIT       RB8
      0000008CH   SFRSYM    DATA     BYTE      TH0
      000000A8H   SFRSYM    DATA     BIT       EX0
      00000098H.1 SFRSYM    DATA     BIT       TI0
      00000088H   SFRSYM    DATA     BIT       IT0
      000000D5H   SFRSYM    DATA     BYTE      TKMAXF
      0000008DH   SFRSYM    DATA     BYTE      TH1
      000000A8H.2 SFRSYM    DATA     BIT       EX1
      00000098H.3 SFRSYM    DATA     BIT       TB8
      00000088H.2 SFRSYM    DATA     BIT       IT1
      000000FCH   SFRSYM    DATA     BYTE      IDLSTL
      000000CDH   SFRSYM    DATA     BYTE      TH2
      000000D0H   SFRSYM    DATA     BIT       P
      00000096H   SFRSYM    DATA     BYTE      RCMSLL
      00000098H.7 SFRSYM    DATA     BIT       SM0
      0000008AH   SFRSYM    DATA     BYTE      TL0
      00000098H.6 SFRSYM    DATA     BIT       SM1
      000000E5H   SFRSYM    DATA     BYTE      LXDIVH
      0000008BH   SFRSYM    DATA     BYTE      TL1
      00000098H.5 SFRSYM    DATA     BIT       SM2
      000000CCH   SFRSYM    DATA     BYTE      TL2
      000000B8H.4 SFRSYM    DATA     BIT       PS0
      000000B8H.1 SFRSYM    DATA     BIT       PT0
      000000B8H.6 SFRSYM    DATA     BIT       PS1
      000000B4H   SFRSYM    DATA     BYTE      I2CCR
      000000B8H.3 SFRSYM    DATA     BIT       PT1
      000000D0H.3 SFRSYM    DATA     BIT       RS0
      000000E4H   SFRSYM    DATA     BYTE      LXDIVL
      000000BDH   SFRSYM    DATA     BYTE      ADCDH
      000000B8H.5 SFRSYM    DATA     BIT       PT2
      00000088H.4 SFRSYM    DATA     BIT       TR0
      000000D0H.4 SFRSYM    DATA     BIT       RS1
      000000DBH   SFRSYM    DATA     BYTE      PWMCON
      00000088H.6 SFRSYM    DATA     BIT       TR1
      000000ACH   SFRSYM    DATA     BYTE      WDVTHH
      000000C8H.6 SFRSYM    DATA     BIT       TR2
      000000B8H   SFRSYM    DATA     BIT       PX0
      000000B8H.2 SFRSYM    DATA     BIT       PX1
      000000BCH   SFRSYM    DATA     BYTE      ADCDL
      000000ABH   SFRSYM    DATA     BYTE      WDVTHL
      000000D9H   SFRSYM    DATA     BYTE      PWMUPD
      00000099H   SFRSYM    DATA     BYTE      S0BUF
      0000009BH   SFRSYM    DATA     BYTE      S1BUF
      00000098H   SFRSYM    DATA     BYTE      S0CON
      00000098H.4 SFRSYM    DATA     BIT       REN
      0000009AH   SFRSYM    DATA     BYTE      S1CON
      000000B9H   SFRSYM    DATA     BYTE      ADCON
      000000D0H.1 SFRSYM    DATA     BIT       DPS
      000000C9H   SFRSYM    DATA     BYTE      T2MOD
      000000C8H   SFRSYM    DATA     BYTE      T2CON
      000000FFH   SFRSYM    DATA     BYTE      STPSTH
      000000BFH   SFRSYM    DATA     BYTE      CKMIF
      000000AFH   SFRSYM    DATA     BYTE      TFCFG
      000000FEH   SFRSYM    DATA     BYTE      STPSTL
      000000C6H   SFRSYM    DATA     BYTE      ATKCH
      000000A1H   SFRSYM    DATA     BYTE      CKCON
      000000C5H   SFRSYM    DATA     BYTE      ATKCL
      000000C2H   SFRSYM    DATA     BYTE      TKCFG
      00000093H   SFRSYM    DATA     BYTE      VCKDH
LX51 LINKER/LOCATER V4.66.66.0                                                        08/04/2020  11:17:01  PAGE 28


      000000A3H   SFRSYM    DATA     BYTE      CKDIV
      000000A2H   SFRSYM    DATA     BYTE      CKSEL
      000000D0H.5 SFRSYM    DATA     BIT       F0
      000000E2H   SFRSYM    DATA     BYTE      LXCFG
      000000AAH   SFRSYM    DATA     BYTE      WDFLG
      00000092H   SFRSYM    DATA     BYTE      VCKDL
      000000FBH   SFRSYM    DATA     BYTE      EPCON
      000000F6H   SFRSYM    DATA     BYTE      RTCDH
      00000091H   SFRSYM    DATA     BYTE      RCCON
      000000E7H   SFRSYM    DATA     BYTE      ATKNH
      000000EEH   SFRSYM    DATA     BYTE      RTCIF
      000000C0H   SFRSYM    DATA     BYTE      INDEX
      000000BEH   SFRSYM    DATA     BYTE      CKMON
      000000F5H   SFRSYM    DATA     BYTE      RTCDL
      000000D0H   SFRSYM    DATA     BYTE      PSW
      000000E6H   SFRSYM    DATA     BYTE      ATKNL
      000000A9H   SFRSYM    DATA     BYTE      WDCON

      01000AB4H   BLOCK     CODE     ---       LVL=0
      01000AB4H   LINE      CODE     ---       #24
      01000AD1H   LINE      CODE     ---       #26
      01000AD6H   LINE      CODE     ---       #27
      01000AD6H   LINE      CODE     ---       #28
      01000AD9H   LINE      CODE     ---       #29
      01000ADCH   LINE      CODE     ---       #30
      01000AE2H   LINE      CODE     ---       #31
      01000AE2H   LINE      CODE     ---       #32
      01000AEAH   LINE      CODE     ---       #33
      01000AEAH   LINE      CODE     ---       #34
      01000AEAH   LINE      CODE     ---       #35
      01000AEFH   LINE      CODE     ---       #36
      01000AEFH   LINE      CODE     ---       #37
      01000AF2H   LINE      CODE     ---       #38
      01000AF5H   LINE      CODE     ---       #39
      01000AF5H   LINE      CODE     ---       #40
      ---         BLOCKEND  ---      ---       LVL=0

      01000BADH   BLOCK     CODE     ---       LVL=0
      01000BADH   LINE      CODE     ---       #41
      01000BCAH   LINE      CODE     ---       #43
      01000BCEH   LINE      CODE     ---       #44
      01000BCEH   LINE      CODE     ---       #45
      01000BD1H   LINE      CODE     ---       #46
      01000BD1H   LINE      CODE     ---       #47
      ---         BLOCKEND  ---      ---       LVL=0

      01000003H   BLOCK     CODE     ---       LVL=0
      01000003H   LINE      CODE     ---       #48
      01000020H   LINE      CODE     ---       #51
      01000025H   LINE      CODE     ---       #52
      01000025H   LINE      CODE     ---       #53
      01000028H   LINE      CODE     ---       #54
      01000028H   LINE      CODE     ---       #56
      ---         BLOCKEND  ---      ---       LVL=0

      ---         MODULE    ---      ---       DEBUG
      00000032H   PUBLIC    DATA     BYTE      rxOffset
      00000031H   PUBLIC    DATA     BYTE      regAddr
      00000020H.3 PUBLIC    BIT      BIT       iicReadMode
      0000002EH   PUBLIC    DATA     ---       pTS_Info
      0200003AH   PUBLIC    XDATA    BYTE      TouchDebugID
      01000DE8H   PUBLIC    CONST    ---       TS_INFO
      01000B10H   PUBLIC    CODE     ---       Debug_ParamLoad
      01000CB0H   PUBLIC    CODE     ---       Debug_init
      01000980H   PUBLIC    CODE     ---       I2C_ISR
LX51 LINKER/LOCATER V4.66.66.0                                                        08/04/2020  11:17:01  PAGE 29


      000000E3H   SFRSYM    DATA     BYTE      LXDAT
      000000C4H   SFRSYM    DATA     BYTE      TKCHS
      00000080H   SFRSYM    DATA     BYTE      P0
      000000C1H   SFRSYM    DATA     BYTE      TKCON
      00000090H   SFRSYM    DATA     BYTE      P1
      000000A0H   SFRSYM    DATA     BYTE      P2
      000000B0H   SFRSYM    DATA     BYTE      P3
      000000D0H.6 SFRSYM    DATA     BIT       AC
      000000A8H.7 SFRSYM    DATA     BIT       EA
      000000E1H   SFRSYM    DATA     BYTE      LXCON
      000000C8H   SFRSYM    DATA     BIT       T2P0
      000000C8H.1 SFRSYM    DATA     BIT       T2P1
      000000F1H   SFRSYM    DATA     BYTE      RTCON
      000000C8H.4 SFRSYM    DATA     BIT       T2R0
      000000D8H   SFRSYM    DATA     BYTE      PWMEN
      000000CFH   SFRSYM    DATA     BYTE      TKMSH
      00000086H   SFRSYM    DATA     BYTE      PWCON
      000000C8H.5 SFRSYM    DATA     BIT       T2R1
      000000CEH   SFRSYM    DATA     BYTE      TKMSL
      00000083H   SFRSYM    DATA     BYTE      DP0H
      000000A8H   SFRSYM    DATA     BYTE      IE
      00000085H   SFRSYM    DATA     BYTE      DP1H
      000000E9H   SFRSYM    DATA     BYTE      RTCSS
      00000082H   SFRSYM    DATA     BYTE      DP0L
      000000CBH   SFRSYM    DATA     BYTE      T2CH
      000000B3H   SFRSYM    DATA     BYTE      I2CADM
      00000084H   SFRSYM    DATA     BYTE      DP1L
      000000C8H.3 SFRSYM    DATA     BIT       T2IE
      000000C3H   SFRSYM    DATA     BYTE      TKMTS
      000000CAH   SFRSYM    DATA     BYTE      T2CL
      000000B2H   SFRSYM    DATA     BYTE      I2CADR
      000000B8H   SFRSYM    DATA     BYTE      IP
      000000B7H   SFRSYM    DATA     BYTE      I2CFLG
      000000B5H   SFRSYM    DATA     BYTE      I2CDAT
      000000EDH   SFRSYM    DATA     BYTE      RTMSS
      000000D0H.7 SFRSYM    DATA     BIT       CY
      000000BBH   SFRSYM    DATA     BYTE      ADCFGH
      000000DAH   SFRSYM    DATA     BYTE      PWMCMAX
      000000B1H   SFRSYM    DATA     BYTE      I2CCON
      000000DEH   SFRSYM    DATA     BYTE      PWMDIVH
      000000BAH   SFRSYM    DATA     BYTE      ADCFGL
      00000081H   SFRSYM    DATA     BYTE      SP
      000000F9H   SFRSYM    DATA     BYTE      EPIE
      000000D0H.2 SFRSYM    DATA     BIT       OV
      000000FAH   SFRSYM    DATA     BYTE      EPIF
      000000DDH   SFRSYM    DATA     BYTE      PWMDIVL
      000000B6H   SFRSYM    DATA     BYTE      I2CSTA
      000000A5H   SFRSYM    DATA     BYTE      IHCFGH
      000000E8H   SFRSYM    DATA     BYTE      EXIE
      000000D1H   SFRSYM    DATA     BYTE      PWMDUTH
      000000C7H   SFRSYM    DATA     BYTE      TKIF
      000000A7H   SFRSYM    DATA     BYTE      ILCFGH
      000000A4H   SFRSYM    DATA     BYTE      IHCFGL
      0000008FH   SFRSYM    DATA     BYTE      IT0CON
      00000080H   SFRSYM    DATA     BIT       P00
      000000ECH   SFRSYM    DATA     BYTE      RTAH
      000000DFH   SFRSYM    DATA     BYTE      PWMDUTL
      0000008EH   SFRSYM    DATA     BYTE      IT1CON
      00000090H   SFRSYM    DATA     BIT       P10
      00000080H.1 SFRSYM    DATA     BIT       P01
      0000009DH   SFRSYM    DATA     BYTE      S1RELH
      00000087H   SFRSYM    DATA     BYTE      PCON
      000000A0H   SFRSYM    DATA     BIT       P20
      00000090H.1 SFRSYM    DATA     BIT       P11
      00000080H.2 SFRSYM    DATA     BIT       P02
LX51 LINKER/LOCATER V4.66.66.0                                                        08/04/2020  11:17:01  PAGE 30


      000000E8H   SFRSYM    DATA     BIT       INT2EN
      000000F4H   SFRSYM    DATA     BYTE      RTCH
      000000B0H   SFRSYM    DATA     BIT       P30
      000000A0H.1 SFRSYM    DATA     BIT       P21
      00000090H.2 SFRSYM    DATA     BIT       P12
      00000080H.3 SFRSYM    DATA     BIT       P03
      000000E8H.1 SFRSYM    DATA     BIT       INT3EN
      000000A6H   SFRSYM    DATA     BYTE      ILCFGL
      000000B0H.1 SFRSYM    DATA     BIT       P31
      000000A0H.2 SFRSYM    DATA     BIT       P22
      00000090H.3 SFRSYM    DATA     BIT       P13
      00000080H.4 SFRSYM    DATA     BIT       P04
      000000E8H.2 SFRSYM    DATA     BIT       INT4EN
      000000B0H.2 SFRSYM    DATA     BIT       P32
      000000A0H.3 SFRSYM    DATA     BIT       P23
      00000090H.4 SFRSYM    DATA     BIT       P14
      00000080H.5 SFRSYM    DATA     BIT       P05
      000000E8H.3 SFRSYM    DATA     BIT       INT5EN
      000000EBH   SFRSYM    DATA     BYTE      RTAM
      0000009CH   SFRSYM    DATA     BYTE      S1RELL
      00000089H   SFRSYM    DATA     BYTE      TMOD
      00000088H   SFRSYM    DATA     BYTE      TCON
      000000B0H.3 SFRSYM    DATA     BIT       P33
      000000A0H.4 SFRSYM    DATA     BIT       P24
      00000090H.5 SFRSYM    DATA     BIT       P15
      00000080H.6 SFRSYM    DATA     BIT       P06
      000000E8H.4 SFRSYM    DATA     BIT       INT6EN
      000000B0H.4 SFRSYM    DATA     BIT       P34
      000000A0H.5 SFRSYM    DATA     BIT       P25
      00000090H.6 SFRSYM    DATA     BIT       P16
      00000080H.7 SFRSYM    DATA     BIT       P07
      000000E8H.5 SFRSYM    DATA     BIT       INT7EN
      000000C8H.2 SFRSYM    DATA     BIT       UCKS
      000000F8H   SFRSYM    DATA     BYTE      EXIP
      000000F3H   SFRSYM    DATA     BYTE      RTCM
      000000B0H.5 SFRSYM    DATA     BIT       P35
      000000A0H.6 SFRSYM    DATA     BIT       P26
      00000090H.7 SFRSYM    DATA     BIT       P17
      000000E8H.6 SFRSYM    DATA     BIT       INT8EN
      000000B0H.6 SFRSYM    DATA     BIT       P36
      000000E8H.7 SFRSYM    DATA     BIT       INT9EN
      000000B0H.7 SFRSYM    DATA     BIT       P37
      000000EAH   SFRSYM    DATA     BYTE      RTAS
      00000095H   SFRSYM    DATA     BYTE      RCTAGH
      000000F2H   SFRSYM    DATA     BYTE      RTCS
      00000088H.1 SFRSYM    DATA     BIT       IE0
      00000088H.3 SFRSYM    DATA     BIT       IE1
      00000094H   SFRSYM    DATA     BYTE      RCTAGL
      000000F7H   SFRSYM    DATA     BYTE      RSTF
      000000F0H   SFRSYM    DATA     BYTE      B
      000000DCH   SFRSYM    DATA     BYTE      PWMCFG
      000000D2H   SFRSYM    DATA     BYTE      PWMAIF
      000000E0H   SFRSYM    DATA     BYTE      ACC
      000000D3H   SFRSYM    DATA     BYTE      PWMBIF
      0000009FH   SFRSYM    DATA     BYTE      RCMSHH
      000000A8H.4 SFRSYM    DATA     BIT       ES0
      000000EFH   SFRSYM    DATA     BYTE      LVDCON
      000000D4H   SFRSYM    DATA     BYTE      PWMCIF
      000000A8H.1 SFRSYM    DATA     BIT       ET0
      000000A8H.6 SFRSYM    DATA     BIT       ES1
      000000A8H.3 SFRSYM    DATA     BIT       ET1
      00000088H.5 SFRSYM    DATA     BIT       TF0
      000000FDH   SFRSYM    DATA     BYTE      IDLSTH
      000000ADH   SFRSYM    DATA     BYTE      PLLCON
      000000A8H.5 SFRSYM    DATA     BIT       ET2
LX51 LINKER/LOCATER V4.66.66.0                                                        08/04/2020  11:17:01  PAGE 31


      00000098H   SFRSYM    DATA     BIT       RI0
      00000088H.7 SFRSYM    DATA     BIT       TF1
      000000D6H   SFRSYM    DATA     BYTE      TKMINF
      0000009EH   SFRSYM    DATA     BYTE      RCMSHL
      00000097H   SFRSYM    DATA     BYTE      RCMSLH
      000000C8H.7 SFRSYM    DATA     BIT       TF2
      00000098H.2 SFRSYM    DATA     BIT       RB8
      0000008CH   SFRSYM    DATA     BYTE      TH0
      000000A8H   SFRSYM    DATA     BIT       EX0
      00000098H.1 SFRSYM    DATA     BIT       TI0
      00000088H   SFRSYM    DATA     BIT       IT0
      000000D5H   SFRSYM    DATA     BYTE      TKMAXF
      0000008DH   SFRSYM    DATA     BYTE      TH1
      000000A8H.2 SFRSYM    DATA     BIT       EX1
      00000098H.3 SFRSYM    DATA     BIT       TB8
      00000088H.2 SFRSYM    DATA     BIT       IT1
      000000FCH   SFRSYM    DATA     BYTE      IDLSTL
      000000CDH   SFRSYM    DATA     BYTE      TH2
      000000D0H   SFRSYM    DATA     BIT       P
      00000096H   SFRSYM    DATA     BYTE      RCMSLL
      00000098H.7 SFRSYM    DATA     BIT       SM0
      0000008AH   SFRSYM    DATA     BYTE      TL0
      00000098H.6 SFRSYM    DATA     BIT       SM1
      000000E5H   SFRSYM    DATA     BYTE      LXDIVH
      0000008BH   SFRSYM    DATA     BYTE      TL1
      00000098H.5 SFRSYM    DATA     BIT       SM2
      000000CCH   SFRSYM    DATA     BYTE      TL2
      000000B8H.4 SFRSYM    DATA     BIT       PS0
      000000B8H.1 SFRSYM    DATA     BIT       PT0
      000000B8H.6 SFRSYM    DATA     BIT       PS1
      000000B4H   SFRSYM    DATA     BYTE      I2CCR
      000000B8H.3 SFRSYM    DATA     BIT       PT1
      000000D0H.3 SFRSYM    DATA     BIT       RS0
      000000E4H   SFRSYM    DATA     BYTE      LXDIVL
      000000BDH   SFRSYM    DATA     BYTE      ADCDH
      000000B8H.5 SFRSYM    DATA     BIT       PT2
      00000088H.4 SFRSYM    DATA     BIT       TR0
      000000D0H.4 SFRSYM    DATA     BIT       RS1
      000000DBH   SFRSYM    DATA     BYTE      PWMCON
      00000088H.6 SFRSYM    DATA     BIT       TR1
      000000ACH   SFRSYM    DATA     BYTE      WDVTHH
      000000C8H.6 SFRSYM    DATA     BIT       TR2
      000000B8H   SFRSYM    DATA     BIT       PX0
      000000B8H.2 SFRSYM    DATA     BIT       PX1
      000000BCH   SFRSYM    DATA     BYTE      ADCDL
      000000ABH   SFRSYM    DATA     BYTE      WDVTHL
      000000D9H   SFRSYM    DATA     BYTE      PWMUPD
      00000099H   SFRSYM    DATA     BYTE      S0BUF
      0000009BH   SFRSYM    DATA     BYTE      S1BUF
      00000098H   SFRSYM    DATA     BYTE      S0CON
      00000098H.4 SFRSYM    DATA     BIT       REN
      0000009AH   SFRSYM    DATA     BYTE      S1CON
      000000B9H   SFRSYM    DATA     BYTE      ADCON
      000000D0H.1 SFRSYM    DATA     BIT       DPS
      000000C9H   SFRSYM    DATA     BYTE      T2MOD
      000000C8H   SFRSYM    DATA     BYTE      T2CON
      000000FFH   SFRSYM    DATA     BYTE      STPSTH
      000000BFH   SFRSYM    DATA     BYTE      CKMIF
      000000AFH   SFRSYM    DATA     BYTE      TFCFG
      000000FEH   SFRSYM    DATA     BYTE      STPSTL
      000000C6H   SFRSYM    DATA     BYTE      ATKCH
      000000A1H   SFRSYM    DATA     BYTE      CKCON
      000000C5H   SFRSYM    DATA     BYTE      ATKCL
      000000C2H   SFRSYM    DATA     BYTE      TKCFG
      00000093H   SFRSYM    DATA     BYTE      VCKDH
LX51 LINKER/LOCATER V4.66.66.0                                                        08/04/2020  11:17:01  PAGE 32


      000000A3H   SFRSYM    DATA     BYTE      CKDIV
      000000A2H   SFRSYM    DATA     BYTE      CKSEL
      000000D0H.5 SFRSYM    DATA     BIT       F0
      000000E2H   SFRSYM    DATA     BYTE      LXCFG
      000000AAH   SFRSYM    DATA     BYTE      WDFLG
      00000092H   SFRSYM    DATA     BYTE      VCKDL
      000000FBH   SFRSYM    DATA     BYTE      EPCON
      000000F6H   SFRSYM    DATA     BYTE      RTCDH
      00000091H   SFRSYM    DATA     BYTE      RCCON
      000000E7H   SFRSYM    DATA     BYTE      ATKNH
      000000EEH   SFRSYM    DATA     BYTE      RTCIF
      000000C0H   SFRSYM    DATA     BYTE      INDEX
      000000BEH   SFRSYM    DATA     BYTE      CKMON
      000000F5H   SFRSYM    DATA     BYTE      RTCDL
      000000D0H   SFRSYM    DATA     BYTE      PSW
      000000E6H   SFRSYM    DATA     BYTE      ATKNL
      000000A9H   SFRSYM    DATA     BYTE      WDCON

      01000D83H   BLOCK     CODE     ---       LVL=0
      ---         BLOCKEND  ---      ---       LVL=0

      01000980H   BLOCK     CODE     ---       LVL=0
      01000980H   BLOCK     CODE     NEAR LAB  LVL=1
      00000007H   SYMBOL    DATA     BYTE      Sta_Temp
      ---         BLOCKEND  ---      ---       LVL=1
      01000980H   LINE      CODE     ---       #48
      01000980H   LINE      CODE     ---       #49
      01000980H   LINE      CODE     ---       #51
      01000986H   LINE      CODE     ---       #52
      01000988H   LINE      CODE     ---       #53
      0100098BH   LINE      CODE     ---       #54
      0100098BH   LINE      CODE     ---       #55
      0100098EH   LINE      CODE     ---       #56
      01000990H   LINE      CODE     ---       #57
      01000990H   LINE      CODE     ---       #58
      01000992H   LINE      CODE     ---       #59
      01000997H   LINE      CODE     ---       #60
      01000997H   LINE      CODE     ---       #61
      0100099AH   LINE      CODE     ---       #62
      0100099AH   LINE      CODE     ---       #63
      0100099CH   LINE      CODE     ---       #64
      010009A6H   LINE      CODE     ---       #65
      010009A8H   LINE      CODE     ---       #67
      010009A8H   LINE      CODE     ---       #68
      010009ADH   LINE      CODE     ---       #69
      010009ADH   LINE      CODE     ---       #70
      010009B0H   LINE      CODE     ---       #71
      010009C8H   LINE      CODE     ---       #72
      010009CBH   LINE      CODE     ---       #73
      010009CBH   LINE      CODE     ---       #74
      010009CDH   LINE      CODE     ---       #76
      010009CDH   LINE      CODE     ---       #77
      010009D8H   LINE      CODE     ---       #78
      010009DAH   LINE      CODE     ---       #79
      010009DDH   LINE      CODE     ---       #80
      010009DDH   LINE      CODE     ---       #81
      010009DDH   LINE      CODE     ---       #82
      010009DFH   LINE      CODE     ---       #83
      010009E2H   LINE      CODE     ---       #84
      010009E2H   LINE      CODE     ---       #85
      010009EDH   LINE      CODE     ---       #86
      010009EFH   LINE      CODE     ---       #87
      010009EFH   LINE      CODE     ---       #88
      010009EFH   LINE      CODE     ---       #89
      010009EFH   LINE      CODE     ---       #90
LX51 LINKER/LOCATER V4.66.66.0                                                        08/04/2020  11:17:01  PAGE 33


      010009EFH   LINE      CODE     ---       #91
      010009F2H   LINE      CODE     ---       #92
      ---         BLOCKEND  ---      ---       LVL=0

      01000CB0H   BLOCK     CODE     ---       LVL=0
      01000CB0H   LINE      CODE     ---       #93
      01000CB0H   LINE      CODE     ---       #94
      01000CB0H   LINE      CODE     ---       #100
      01000CB6H   LINE      CODE     ---       #101
      01000CBCH   LINE      CODE     ---       #102
      01000CC0H   LINE      CODE     ---       #103
      01000CC7H   LINE      CODE     ---       #104
      01000CCEH   LINE      CODE     ---       #106
      01000CD1H   LINE      CODE     ---       #107
      01000CD4H   LINE      CODE     ---       #108
      01000CD7H   LINE      CODE     ---       #110
      01000CD9H   LINE      CODE     ---       #111
      01000CDCH   LINE      CODE     ---       #112
      ---         BLOCKEND  ---      ---       LVL=0

      01000B10H   BLOCK     CODE     ---       LVL=0
      01000B10H   BLOCK     CODE     NEAR LAB  LVL=1
      00000007H   SYMBOL    DATA     BYTE      i
      ---         BLOCKEND  ---      ---       LVL=1
      01000B10H   LINE      CODE     ---       #113
      01000B10H   LINE      CODE     ---       #114
      01000B10H   LINE      CODE     ---       #116
      01000B1FH   LINE      CODE     ---       #117
      01000B26H   LINE      CODE     ---       #118
      01000B2CH   LINE      CODE     ---       #119
      01000B2EH   LINE      CODE     ---       #120
      01000B2EH   LINE      CODE     ---       #121
      01000B40H   LINE      CODE     ---       #122
      01000B44H   LINE      CODE     ---       #123
      01000B53H   LINE      CODE     ---       #124
      01000B62H   LINE      CODE     ---       #125
      ---         BLOCKEND  ---      ---       LVL=0

      ---         MODULE    ---      ---       TS_API
      02000039H   PUBLIC    XDATA    BYTE      Key_Cnt_Debug
      02000037H   PUBLIC    XDATA    WORD      WheelSliderCapRateFilter
      00000037H   PUBLIC    IDATA    BYTE      PreKeysFlagSN
      00000020H.2 PUBLIC    BIT      BIT       TS_StableFlag
      02000036H   PUBLIC    XDATA    ---       TS_CH_Debug
      02000035H   PUBLIC    XDATA    ---       TS_AreaConfirmTimer
      02000033H   PUBLIC    XDATA    WORD      TS_RefChBaseLineData
      02000032H   PUBLIC    XDATA    BYTE      TS_State_Debug
      02000031H   PUBLIC    XDATA    ---       TSKey_LongTouchLimitTimer
      0200002FH   PUBLIC    XDATA    ---       TS_FilterPosIdx
      0200002DH   PUBLIC    XDATA    WORD      TS_RefPostData
      0000002CH   PUBLIC    DATA     WORD      TS_LongKeyTimer
      0200002CH   PUBLIC    XDATA    BYTE      TS_HalfSecCnt
      00000036H   PUBLIC    IDATA    BYTE      TS_RefCHBaseLineAdjuTimer
      0200002BH   PUBLIC    XDATA    BYTE      KeysFlagSN
      0200002AH   PUBLIC    XDATA    BYTE      EnterStopScanTimer
      02000028H   PUBLIC    XDATA    ---       TSKey_FingerThd
      0000002AH   PUBLIC    DATA     WORD      TS_Key
      00000029H   PUBLIC    DATA     BYTE      TS_BaseCh
      02000024H   PUBLIC    XDATA    ---       TS_RawData
      02000023H   PUBLIC    XDATA    BYTE      WheelSliderMaxIdx
      00000035H   PUBLIC    IDATA    BYTE      TS_Cnt
      0200001FH   PUBLIC    XDATA    ---       TS_PostData
      0200001EH   PUBLIC    XDATA    BYTE      WheelSliderRefCh
      0200001DH   PUBLIC    XDATA    BYTE      TS_Init_Step
      00000034H   PUBLIC    IDATA    ---       TS_CH
LX51 LINKER/LOCATER V4.66.66.0                                                        08/04/2020  11:17:01  PAGE 34


      02000009H   PUBLIC    XDATA    ---       TS_FilterBuf
      02000007H   PUBLIC    XDATA    ---       TS_BaseLineData
      00000033H   PUBLIC    IDATA    BYTE      TS_State
      02000005H   PUBLIC    XDATA    ---       TS_FirstAreaData
      00000028H   PUBLIC    DATA     BYTE      ActiveTouchType
      00000020H.1 PUBLIC    BIT      BIT       TS_CycleScanDoneFlag
      02000001H   PUBLIC    XDATA    DWORD     KeysFlagSN_Debug
      00000027H   PUBLIC    DATA     BYTE      TK_State
      00000026H   PUBLIC    DATA     BYTE      TS_Index
      01000DD4H   PUBLIC    CONST    ---       TS_KEY_TAB
      01000DCFH   PUBLIC    CONST    ---       AREA_CONFIRM_TIME_TAB
      01000DCEH   PUBLIC    CONST    ---       MASK_TAB
      01000DCDH   PUBLIC    CONST    ---       WHEEL_SLIDER0_MAX_MIN_TAB
      01000DC9H   PUBLIC    CONST    ---       TS_KEY_CH_INFO_SEQ
      010008F5H   PUBLIC    CODE     ---       TS_GetKey
      01000BECH   PUBLIC    CODE     ---       TS_Action
      010009F3H   PUBLIC    CODE     ---       TS_init
      01000525H   PUBLIC    CODE     ---       TSKey_DataDeal
      010002A1H   PUBLIC    CODE     ---       TS_RunInit
      01000630H   PUBLIC    CODE     ---       TS_DataFiltering
      010007B5H   PUBLIC    CODE     ---       TS_ISR
      01000CDDH   PUBLIC    CODE     ---       TS_HS_ISR
      01000C54H   PUBLIC    CODE     ---       TS_MS_ISR
      000000E3H   SFRSYM    DATA     BYTE      LXDAT
      000000C4H   SFRSYM    DATA     BYTE      TKCHS
      00000080H   SFRSYM    DATA     BYTE      P0
      000000C1H   SFRSYM    DATA     BYTE      TKCON
      00000090H   SFRSYM    DATA     BYTE      P1
      000000A0H   SFRSYM    DATA     BYTE      P2
      000000B0H   SFRSYM    DATA     BYTE      P3
      000000D0H.6 SFRSYM    DATA     BIT       AC
      000000A8H.7 SFRSYM    DATA     BIT       EA
      000000E1H   SFRSYM    DATA     BYTE      LXCON
      000000C8H   SFRSYM    DATA     BIT       T2P0
      000000C8H.1 SFRSYM    DATA     BIT       T2P1
      000000F1H   SFRSYM    DATA     BYTE      RTCON
      000000C8H.4 SFRSYM    DATA     BIT       T2R0
      000000D8H   SFRSYM    DATA     BYTE      PWMEN
      000000CFH   SFRSYM    DATA     BYTE      TKMSH
      00000086H   SFRSYM    DATA     BYTE      PWCON
      000000C8H.5 SFRSYM    DATA     BIT       T2R1
      000000CEH   SFRSYM    DATA     BYTE      TKMSL
      00000083H   SFRSYM    DATA     BYTE      DP0H
      000000A8H   SFRSYM    DATA     BYTE      IE
      00000085H   SFRSYM    DATA     BYTE      DP1H
      000000E9H   SFRSYM    DATA     BYTE      RTCSS
      00000082H   SFRSYM    DATA     BYTE      DP0L
      000000CBH   SFRSYM    DATA     BYTE      T2CH
      000000B3H   SFRSYM    DATA     BYTE      I2CADM
      00000084H   SFRSYM    DATA     BYTE      DP1L
      000000C8H.3 SFRSYM    DATA     BIT       T2IE
      000000C3H   SFRSYM    DATA     BYTE      TKMTS
      000000CAH   SFRSYM    DATA     BYTE      T2CL
      000000B2H   SFRSYM    DATA     BYTE      I2CADR
      000000B8H   SFRSYM    DATA     BYTE      IP
      000000B7H   SFRSYM    DATA     BYTE      I2CFLG
      000000B5H   SFRSYM    DATA     BYTE      I2CDAT
      000000EDH   SFRSYM    DATA     BYTE      RTMSS
      000000D0H.7 SFRSYM    DATA     BIT       CY
      000000BBH   SFRSYM    DATA     BYTE      ADCFGH
      000000DAH   SFRSYM    DATA     BYTE      PWMCMAX
      000000B1H   SFRSYM    DATA     BYTE      I2CCON
      000000DEH   SFRSYM    DATA     BYTE      PWMDIVH
      000000BAH   SFRSYM    DATA     BYTE      ADCFGL
      00000081H   SFRSYM    DATA     BYTE      SP
LX51 LINKER/LOCATER V4.66.66.0                                                        08/04/2020  11:17:01  PAGE 35


      000000F9H   SFRSYM    DATA     BYTE      EPIE
      000000D0H.2 SFRSYM    DATA     BIT       OV
      000000FAH   SFRSYM    DATA     BYTE      EPIF
      000000DDH   SFRSYM    DATA     BYTE      PWMDIVL
      000000B6H   SFRSYM    DATA     BYTE      I2CSTA
      000000A5H   SFRSYM    DATA     BYTE      IHCFGH
      000000E8H   SFRSYM    DATA     BYTE      EXIE
      000000D1H   SFRSYM    DATA     BYTE      PWMDUTH
      000000C7H   SFRSYM    DATA     BYTE      TKIF
      000000A7H   SFRSYM    DATA     BYTE      ILCFGH
      000000A4H   SFRSYM    DATA     BYTE      IHCFGL
      0000008FH   SFRSYM    DATA     BYTE      IT0CON
      00000080H   SFRSYM    DATA     BIT       P00
      000000ECH   SFRSYM    DATA     BYTE      RTAH
      000000DFH   SFRSYM    DATA     BYTE      PWMDUTL
      0000008EH   SFRSYM    DATA     BYTE      IT1CON
      00000090H   SFRSYM    DATA     BIT       P10
      00000080H.1 SFRSYM    DATA     BIT       P01
      0000009DH   SFRSYM    DATA     BYTE      S1RELH
      00000087H   SFRSYM    DATA     BYTE      PCON
      000000A0H   SFRSYM    DATA     BIT       P20
      00000090H.1 SFRSYM    DATA     BIT       P11
      00000080H.2 SFRSYM    DATA     BIT       P02
      000000E8H   SFRSYM    DATA     BIT       INT2EN
      000000F4H   SFRSYM    DATA     BYTE      RTCH
      000000B0H   SFRSYM    DATA     BIT       P30
      000000A0H.1 SFRSYM    DATA     BIT       P21
      00000090H.2 SFRSYM    DATA     BIT       P12
      00000080H.3 SFRSYM    DATA     BIT       P03
      000000E8H.1 SFRSYM    DATA     BIT       INT3EN
      000000A6H   SFRSYM    DATA     BYTE      ILCFGL
      000000B0H.1 SFRSYM    DATA     BIT       P31
      000000A0H.2 SFRSYM    DATA     BIT       P22
      00000090H.3 SFRSYM    DATA     BIT       P13
      00000080H.4 SFRSYM    DATA     BIT       P04
      000000E8H.2 SFRSYM    DATA     BIT       INT4EN
      000000B0H.2 SFRSYM    DATA     BIT       P32
      000000A0H.3 SFRSYM    DATA     BIT       P23
      00000090H.4 SFRSYM    DATA     BIT       P14
      00000080H.5 SFRSYM    DATA     BIT       P05
      000000E8H.3 SFRSYM    DATA     BIT       INT5EN
      000000EBH   SFRSYM    DATA     BYTE      RTAM
      0000009CH   SFRSYM    DATA     BYTE      S1RELL
      00000089H   SFRSYM    DATA     BYTE      TMOD
      00000088H   SFRSYM    DATA     BYTE      TCON
      000000B0H.3 SFRSYM    DATA     BIT       P33
      000000A0H.4 SFRSYM    DATA     BIT       P24
      00000090H.5 SFRSYM    DATA     BIT       P15
      00000080H.6 SFRSYM    DATA     BIT       P06
      000000E8H.4 SFRSYM    DATA     BIT       INT6EN
      000000B0H.4 SFRSYM    DATA     BIT       P34
      000000A0H.5 SFRSYM    DATA     BIT       P25
      00000090H.6 SFRSYM    DATA     BIT       P16
      00000080H.7 SFRSYM    DATA     BIT       P07
      000000E8H.5 SFRSYM    DATA     BIT       INT7EN
      000000C8H.2 SFRSYM    DATA     BIT       UCKS
      000000F8H   SFRSYM    DATA     BYTE      EXIP
      000000F3H   SFRSYM    DATA     BYTE      RTCM
      000000B0H.5 SFRSYM    DATA     BIT       P35
      000000A0H.6 SFRSYM    DATA     BIT       P26
      00000090H.7 SFRSYM    DATA     BIT       P17
      000000E8H.6 SFRSYM    DATA     BIT       INT8EN
      000000B0H.6 SFRSYM    DATA     BIT       P36
      000000E8H.7 SFRSYM    DATA     BIT       INT9EN
      000000B0H.7 SFRSYM    DATA     BIT       P37
LX51 LINKER/LOCATER V4.66.66.0                                                        08/04/2020  11:17:01  PAGE 36


      000000EAH   SFRSYM    DATA     BYTE      RTAS
      00000095H   SFRSYM    DATA     BYTE      RCTAGH
      000000F2H   SFRSYM    DATA     BYTE      RTCS
      00000088H.1 SFRSYM    DATA     BIT       IE0
      00000088H.3 SFRSYM    DATA     BIT       IE1
      00000094H   SFRSYM    DATA     BYTE      RCTAGL
      000000F7H   SFRSYM    DATA     BYTE      RSTF
      000000F0H   SFRSYM    DATA     BYTE      B
      000000DCH   SFRSYM    DATA     BYTE      PWMCFG
      000000D2H   SFRSYM    DATA     BYTE      PWMAIF
      000000E0H   SFRSYM    DATA     BYTE      ACC
      000000D3H   SFRSYM    DATA     BYTE      PWMBIF
      0000009FH   SFRSYM    DATA     BYTE      RCMSHH
      000000A8H.4 SFRSYM    DATA     BIT       ES0
      000000EFH   SFRSYM    DATA     BYTE      LVDCON
      000000D4H   SFRSYM    DATA     BYTE      PWMCIF
      000000A8H.1 SFRSYM    DATA     BIT       ET0
      000000A8H.6 SFRSYM    DATA     BIT       ES1
      000000A8H.3 SFRSYM    DATA     BIT       ET1
      00000088H.5 SFRSYM    DATA     BIT       TF0
      000000FDH   SFRSYM    DATA     BYTE      IDLSTH
      000000ADH   SFRSYM    DATA     BYTE      PLLCON
      000000A8H.5 SFRSYM    DATA     BIT       ET2
      00000098H   SFRSYM    DATA     BIT       RI0
      00000088H.7 SFRSYM    DATA     BIT       TF1
      000000D6H   SFRSYM    DATA     BYTE      TKMINF
      0000009EH   SFRSYM    DATA     BYTE      RCMSHL
      00000097H   SFRSYM    DATA     BYTE      RCMSLH
      000000C8H.7 SFRSYM    DATA     BIT       TF2
      00000098H.2 SFRSYM    DATA     BIT       RB8
      0000008CH   SFRSYM    DATA     BYTE      TH0
      000000A8H   SFRSYM    DATA     BIT       EX0
      00000098H.1 SFRSYM    DATA     BIT       TI0
      00000088H   SFRSYM    DATA     BIT       IT0
      000000D5H   SFRSYM    DATA     BYTE      TKMAXF
      0000008DH   SFRSYM    DATA     BYTE      TH1
      000000A8H.2 SFRSYM    DATA     BIT       EX1
      00000098H.3 SFRSYM    DATA     BIT       TB8
      00000088H.2 SFRSYM    DATA     BIT       IT1
      000000FCH   SFRSYM    DATA     BYTE      IDLSTL
      000000CDH   SFRSYM    DATA     BYTE      TH2
      000000D0H   SFRSYM    DATA     BIT       P
      00000096H   SFRSYM    DATA     BYTE      RCMSLL
      00000098H.7 SFRSYM    DATA     BIT       SM0
      0000008AH   SFRSYM    DATA     BYTE      TL0
      00000098H.6 SFRSYM    DATA     BIT       SM1
      000000E5H   SFRSYM    DATA     BYTE      LXDIVH
      0000008BH   SFRSYM    DATA     BYTE      TL1
      00000098H.5 SFRSYM    DATA     BIT       SM2
      000000CCH   SFRSYM    DATA     BYTE      TL2
      000000B8H.4 SFRSYM    DATA     BIT       PS0
      000000B8H.1 SFRSYM    DATA     BIT       PT0
      000000B8H.6 SFRSYM    DATA     BIT       PS1
      000000B4H   SFRSYM    DATA     BYTE      I2CCR
      000000B8H.3 SFRSYM    DATA     BIT       PT1
      000000D0H.3 SFRSYM    DATA     BIT       RS0
      000000E4H   SFRSYM    DATA     BYTE      LXDIVL
      000000BDH   SFRSYM    DATA     BYTE      ADCDH
      000000B8H.5 SFRSYM    DATA     BIT       PT2
      00000088H.4 SFRSYM    DATA     BIT       TR0
      000000D0H.4 SFRSYM    DATA     BIT       RS1
      000000DBH   SFRSYM    DATA     BYTE      PWMCON
      00000088H.6 SFRSYM    DATA     BIT       TR1
      000000ACH   SFRSYM    DATA     BYTE      WDVTHH
      000000C8H.6 SFRSYM    DATA     BIT       TR2
LX51 LINKER/LOCATER V4.66.66.0                                                        08/04/2020  11:17:01  PAGE 37


      000000B8H   SFRSYM    DATA     BIT       PX0
      000000B8H.2 SFRSYM    DATA     BIT       PX1
      000000BCH   SFRSYM    DATA     BYTE      ADCDL
      000000ABH   SFRSYM    DATA     BYTE      WDVTHL
      000000D9H   SFRSYM    DATA     BYTE      PWMUPD
      00000099H   SFRSYM    DATA     BYTE      S0BUF
      0000009BH   SFRSYM    DATA     BYTE      S1BUF
      00000098H   SFRSYM    DATA     BYTE      S0CON
      00000098H.4 SFRSYM    DATA     BIT       REN
      0000009AH   SFRSYM    DATA     BYTE      S1CON
      000000B9H   SFRSYM    DATA     BYTE      ADCON
      000000D0H.1 SFRSYM    DATA     BIT       DPS
      000000C9H   SFRSYM    DATA     BYTE      T2MOD
      000000C8H   SFRSYM    DATA     BYTE      T2CON
      000000FFH   SFRSYM    DATA     BYTE      STPSTH
      000000BFH   SFRSYM    DATA     BYTE      CKMIF
      000000AFH   SFRSYM    DATA     BYTE      TFCFG
      000000FEH   SFRSYM    DATA     BYTE      STPSTL
      000000C6H   SFRSYM    DATA     BYTE      ATKCH
      000000A1H   SFRSYM    DATA     BYTE      CKCON
      000000C5H   SFRSYM    DATA     BYTE      ATKCL
      000000C2H   SFRSYM    DATA     BYTE      TKCFG
      00000093H   SFRSYM    DATA     BYTE      VCKDH
      000000A3H   SFRSYM    DATA     BYTE      CKDIV
      000000A2H   SFRSYM    DATA     BYTE      CKSEL
      000000D0H.5 SFRSYM    DATA     BIT       F0
      000000E2H   SFRSYM    DATA     BYTE      LXCFG
      000000AAH   SFRSYM    DATA     BYTE      WDFLG
      00000092H   SFRSYM    DATA     BYTE      VCKDL
      000000FBH   SFRSYM    DATA     BYTE      EPCON
      000000F6H   SFRSYM    DATA     BYTE      RTCDH
      00000091H   SFRSYM    DATA     BYTE      RCCON
      000000E7H   SFRSYM    DATA     BYTE      ATKNH
      000000EEH   SFRSYM    DATA     BYTE      RTCIF
      000000C0H   SFRSYM    DATA     BYTE      INDEX
      000000BEH   SFRSYM    DATA     BYTE      CKMON
      000000F5H   SFRSYM    DATA     BYTE      RTCDL
      000000D0H   SFRSYM    DATA     BYTE      PSW
      000000E6H   SFRSYM    DATA     BYTE      ATKNL
      000000A9H   SFRSYM    DATA     BYTE      WDCON

      010006F3H   BLOCK     CODE     ---       LVL=0
      ---         BLOCKEND  ---      ---       LVL=0

      01000C54H   BLOCK     CODE     ---       LVL=0
      01000C54H   BLOCK     CODE     NEAR LAB  LVL=1
      02000000H   SYMBOL    XDATA    BYTE      ms_cnt
      00000007H   SYMBOL    DATA     BYTE      i
      ---         BLOCKEND  ---      ---       LVL=1
      01000C54H   LINE      CODE     ---       #125
      01000C54H   LINE      CODE     ---       #126
      01000C54H   LINE      CODE     ---       #130
      01000C5AH   LINE      CODE     ---       #131
      01000C60H   LINE      CODE     ---       #132
      01000C60H   LINE      CODE     ---       #133
      01000C62H   LINE      CODE     ---       #134
      01000C6CH   LINE      CODE     ---       #135
      01000C6CH   LINE      CODE     ---       #136
      01000C75H   LINE      CODE     ---       #137
      01000C75H   LINE      CODE     ---       #138
      01000C7EH   LINE      CODE     ---       #139
      01000C7EH   LINE      CODE     ---       #140
      01000C81H   LINE      CODE     ---       #156
      01000C81H   LINE      CODE     ---       #157
      ---         BLOCKEND  ---      ---       LVL=0
LX51 LINKER/LOCATER V4.66.66.0                                                        08/04/2020  11:17:01  PAGE 38



      01000CDDH   BLOCK     CODE     ---       LVL=0
      01000CDDH   BLOCK     CODE     NEAR LAB  LVL=1
      00000007H   SYMBOL    DATA     BYTE      i
      ---         BLOCKEND  ---      ---       LVL=1
      01000CDDH   LINE      CODE     ---       #158
      01000CDDH   LINE      CODE     ---       #159
      01000CDDH   LINE      CODE     ---       #165
      01000CE3H   LINE      CODE     ---       #174
      01000CE5H   LINE      CODE     ---       #175
      01000CE5H   LINE      CODE     ---       #176
      01000CEEH   LINE      CODE     ---       #177
      01000CEEH   LINE      CODE     ---       #178
      01000CF7H   LINE      CODE     ---       #179
      01000CF7H   LINE      CODE     ---       #180
      01000CFBH   LINE      CODE     ---       #191
      01000D00H   LINE      CODE     ---       #192
      01000D00H   LINE      CODE     ---       #193
      01000D01H   LINE      CODE     ---       #194
      01000D01H   LINE      CODE     ---       #195
      01000D07H   LINE      CODE     ---       #196
      01000D07H   LINE      CODE     ---       #197
      01000D09H   LINE      CODE     ---       #198
      01000D09H   LINE      CODE     ---       #199
      ---         BLOCKEND  ---      ---       LVL=0

      010007B5H   BLOCK     CODE     ---       LVL=0
      010007B5H   BLOCK     CODE     NEAR LAB  LVL=1
      00000008H   SYMBOL    DATA     BYTE      index_copy
      00000005H   SYMBOL    DATA     BYTE      i
      00000009H   SYMBOL    DATA     ---       TS_Data
      ---         BLOCKEND  ---      ---       LVL=1
      010007B5H   LINE      CODE     ---       #200
      010007B5H   LINE      CODE     ---       #201
      010007B5H   LINE      CODE     ---       #211
      010007BDH   LINE      CODE     ---       #212
      010007BDH   LINE      CODE     ---       #213
      010007C1H   LINE      CODE     ---       #214
      010007C1H   LINE      CODE     ---       #215
      010007C4H   LINE      CODE     ---       #216
      010007C6H   LINE      CODE     ---       #217
      010007C6H   LINE      CODE     ---       #218
      010007DFH   LINE      CODE     ---       #219
      010007DFH   LINE      CODE     ---       #220
      010007ECH   LINE      CODE     ---       #221
      010007EEH   LINE      CODE     ---       #222
      010007F6H   LINE      CODE     ---       #223
      010007FEH   LINE      CODE     ---       #224
      010007FEH   LINE      CODE     ---       #225
      01000802H   LINE      CODE     ---       #226
      01000804H   LINE      CODE     ---       #227
      01000804H   LINE      CODE     ---       #260
      01000804H   LINE      CODE     ---       #262
      0100081EH   LINE      CODE     ---       #266
      0100081EH   LINE      CODE     ---       #267
      01000830H   LINE      CODE     ---       #268
      01000830H   LINE      CODE     ---       #269
      01000830H   LINE      CODE     ---       #270
      01000830H   LINE      CODE     ---       #271
      01000834H   LINE      CODE     ---       #300
      0100084AH   LINE      CODE     ---       #301
      0100084AH   LINE      CODE     ---       #303
      0100084CH   LINE      CODE     ---       #317
      0100084FH   LINE      CODE     ---       #318
      01000851H   LINE      CODE     ---       #320
LX51 LINKER/LOCATER V4.66.66.0                                                        08/04/2020  11:17:01  PAGE 39


      01000851H   LINE      CODE     ---       #321
      01000857H   LINE      CODE     ---       #322
      01000857H   LINE      CODE     ---       #323
      0100085AH   LINE      CODE     ---       #324
      01000862H   LINE      CODE     ---       #325
      01000865H   LINE      CODE     ---       #326
      01000868H   LINE      CODE     ---       #327
      ---         BLOCKEND  ---      ---       LVL=0

      01000630H   BLOCK     CODE     ---       LVL=0
      01000630H   BLOCK     CODE     NEAR LAB  LVL=1
      00000015H   SYMBOL    DATA     BYTE      i
      00000007H   SYMBOL    DATA     BYTE      j
      00000016H   SYMBOL    DATA     WORD      DataSum
      00000018H   SYMBOL    DATA     WORD      DataMax
      0000001AH   SYMBOL    DATA     WORD      DataMin
      ---         BLOCKEND  ---      ---       LVL=1
      01000630H   LINE      CODE     ---       #328
      01000630H   LINE      CODE     ---       #329
      01000630H   LINE      CODE     ---       #335
      01000642H   LINE      CODE     ---       #336
      01000642H   LINE      CODE     ---       #340
      01000648H   LINE      CODE     ---       #341
      01000651H   LINE      CODE     ---       #342
      01000651H   LINE      CODE     ---       #343
      01000656H   LINE      CODE     ---       #344
      01000656H   LINE      CODE     ---       #345
      01000658H   LINE      CODE     ---       #346
      0100067BH   LINE      CODE     ---       #347
      0100067DH   LINE      CODE     ---       #349
      01000682H   LINE      CODE     ---       #350
      01000686H   LINE      CODE     ---       #351
      0100068CH   LINE      CODE     ---       #352
      0100068EH   LINE      CODE     ---       #353
      0100068EH   LINE      CODE     ---       #354
      010006A6H   LINE      CODE     ---       #356
      010006AFH   LINE      CODE     ---       #357
      010006AFH   LINE      CODE     ---       #358
      010006B3H   LINE      CODE     ---       #359
      010006B3H   LINE      CODE     ---       #360
      010006BCH   LINE      CODE     ---       #361
      010006BCH   LINE      CODE     ---       #362
      010006C0H   LINE      CODE     ---       #363
      010006C0H   LINE      CODE     ---       #365
      010006C4H   LINE      CODE     ---       #369
      010006EDH   LINE      CODE     ---       #372
      010006F2H   LINE      CODE     ---       #373
      ---         BLOCKEND  ---      ---       LVL=0

      010002A1H   BLOCK     CODE     ---       LVL=0
      010002A1H   BLOCK     CODE     NEAR LAB  LVL=1
      00000015H   SYMBOL    DATA     BYTE      i
      00000007H   SYMBOL    DATA     BYTE      j
      00000021H   SYMBOL    DATA     BYTE      TS_ScanTimes
      00000022H   SYMBOL    DATA     BYTE      TS_Init_Step_Sub
      01000313H   BLOCK     CODE     NEAR LAB  LVL=2
      00000016H   SYMBOL    DATA     INT       delta
      ---         BLOCKEND  ---      ---       LVL=2
      ---         BLOCKEND  ---      ---       LVL=1
      010002A1H   LINE      CODE     ---       #421
      010002A1H   LINE      CODE     ---       #422
      010002A1H   LINE      CODE     ---       #426
      010002A7H   LINE      CODE     ---       #427
      010002A7H   LINE      CODE     ---       #440
      010002A9H   LINE      CODE     ---       #441
LX51 LINKER/LOCATER V4.66.66.0                                                        08/04/2020  11:17:01  PAGE 40


      010002ADH   LINE      CODE     ---       #442
      010002AFH   LINE      CODE     ---       #443
      010002B2H   LINE      CODE     ---       #444
      010002B8H   LINE      CODE     ---       #445
      010002BBH   LINE      CODE     ---       #446
      010002BEH   LINE      CODE     ---       #447
      010002BFH   LINE      CODE     ---       #448
      010002CBH   LINE      CODE     ---       #449
      010002CBH   LINE      CODE     ---       #450
      010002D1H   LINE      CODE     ---       #451
      010002D1H   LINE      CODE     ---       #452
      010002D3H   LINE      CODE     ---       #453
      010002D7H   LINE      CODE     ---       #454
      010002D7H   LINE      CODE     ---       #455
      010002E0H   LINE      CODE     ---       #456
      010002E0H   LINE      CODE     ---       #458
      010002E0H   LINE      CODE     ---       #459
      010002E8H   LINE      CODE     ---       #460
      010002E8H   LINE      CODE     ---       #461
      010002F3H   LINE      CODE     ---       #462
      010002F7H   LINE      CODE     ---       #463
      010002FAH   LINE      CODE     ---       #464
      01000300H   LINE      CODE     ---       #465
      01000301H   LINE      CODE     ---       #466
      0100030AH   LINE      CODE     ---       #467
      0100030AH   LINE      CODE     ---       #468
      01000313H   LINE      CODE     ---       #469
      01000313H   LINE      CODE     ---       #471
      0100031AH   LINE      CODE     ---       #472
      0100031AH   LINE      CODE     ---       #473
      0100032CH   LINE      CODE     ---       #474
      01000346H   LINE      CODE     ---       #475
      01000346H   LINE      CODE     ---       #476
      0100034AH   LINE      CODE     ---       #478
      0100034AH   LINE      CODE     ---       #479
      0100034EH   LINE      CODE     ---       #480
      01000354H   LINE      CODE     ---       #481
      01000357H   LINE      CODE     ---       #482
      01000357H   LINE      CODE     ---       #483
      01000357H   LINE      CODE     ---       #484
      01000357H   LINE      CODE     ---       #485
      01000358H   LINE      CODE     ---       #486
      01000360H   LINE      CODE     ---       #487
      01000360H   LINE      CODE     ---       #488
      01000366H   LINE      CODE     ---       #489
      01000366H   LINE      CODE     ---       #490
      01000368H   LINE      CODE     ---       #491
      01000371H   LINE      CODE     ---       #492
      01000371H   LINE      CODE     ---       #494
      01000371H   LINE      CODE     ---       #528
      01000375H   LINE      CODE     ---       #529
      01000383H   LINE      CODE     ---       #530
      01000383H   LINE      CODE     ---       #531
      01000385H   LINE      CODE     ---       #532
      01000385H   LINE      CODE     ---       #533
      0100039DH   LINE      CODE     ---       #534
      010003A1H   LINE      CODE     ---       #535
      010003AAH   LINE      CODE     ---       #540
      010003B1H   LINE      CODE     ---       #541
      010003C0H   LINE      CODE     ---       #542
      010003CCH   LINE      CODE     ---       #562
      010003F0H   LINE      CODE     ---       #564
      010003F7H   LINE      CODE     ---       #568
      010003FCH   LINE      CODE     ---       #577
      010003FFH   LINE      CODE     ---       #579
LX51 LINKER/LOCATER V4.66.66.0                                                        08/04/2020  11:17:01  PAGE 41


      01000403H   LINE      CODE     ---       #580
      01000403H   LINE      CODE     ---       #581
      01000403H   LINE      CODE     ---       #582
      ---         BLOCKEND  ---      ---       LVL=0

      01000525H   BLOCK     CODE     ---       LVL=0
      01000525H   BLOCK     CODE     NEAR LAB  LVL=1
      00000015H   SYMBOL    DATA     BYTE      i
      00000016H   SYMBOL    DATA     BYTE      TouchArea
      00000017H   SYMBOL    DATA     BYTE      NowArea
      ---         BLOCKEND  ---      ---       LVL=1
      01000525H   LINE      CODE     ---       #686
      01000525H   LINE      CODE     ---       #687
      01000525H   LINE      CODE     ---       #694
      01000528H   LINE      CODE     ---       #695
      01000528H   LINE      CODE     ---       #707
      01000530H   LINE      CODE     ---       #708
      0100053AH   LINE      CODE     ---       #710
      01000546H   LINE      CODE     ---       #711
      01000546H   LINE      CODE     ---       #712
      01000548H   LINE      CODE     ---       #713
      01000548H   LINE      CODE     ---       #720
      0100054CH   LINE      CODE     ---       #721
      0100054CH   LINE      CODE     ---       #722
      01000550H   LINE      CODE     ---       #723
      01000550H   LINE      CODE     ---       #724
      01000555H   LINE      CODE     ---       #725
      01000555H   LINE      CODE     ---       #726
      0100055EH   LINE      CODE     ---       #727
      0100055EH   LINE      CODE     ---       #728
      01000561H   LINE      CODE     ---       #730
      01000567H   LINE      CODE     ---       #732
      0100056DH   LINE      CODE     ---       #733
      0100056DH   LINE      CODE     ---       #734
      01000570H   LINE      CODE     ---       #736
      01000570H   LINE      CODE     ---       #743
      01000576H   LINE      CODE     ---       #745
      0100057CH   LINE      CODE     ---       #746
      0100057CH   LINE      CODE     ---       #747
      01000587H   LINE      CODE     ---       #748
      01000587H   LINE      CODE     ---       #749
      01000587H   LINE      CODE     ---       #753
      01000587H   LINE      CODE     ---       #758
      01000587H   LINE      CODE     ---       #760
      01000587H   LINE      CODE     ---       #761
      01000589H   LINE      CODE     ---       #763
      01000589H   LINE      CODE     ---       #764
      0100058EH   LINE      CODE     ---       #765
      0100058EH   LINE      CODE     ---       #766
      01000594H   LINE      CODE     ---       #767
      01000594H   LINE      CODE     ---       #772
      01000598H   LINE      CODE     ---       #774
      01000598H   LINE      CODE     ---       #775
      01000598H   LINE      CODE     ---       #779
      01000598H   LINE      CODE     ---       #780
      0100059AH   LINE      CODE     ---       #788
      0100059AH   LINE      CODE     ---       #790
      0100059AH   LINE      CODE     ---       #791
      0100059EH   LINE      CODE     ---       #792
      0100059EH   LINE      CODE     ---       #793
      010005A1H   LINE      CODE     ---       #794
      010005A3H   LINE      CODE     ---       #795
      010005A5H   LINE      CODE     ---       #796
      010005A5H   LINE      CODE     ---       #797
      010005A5H   LINE      CODE     ---       #798
LX51 LINKER/LOCATER V4.66.66.0                                                        08/04/2020  11:17:01  PAGE 42


      010005AAH   LINE      CODE     ---       #799
      010005AAH   LINE      CODE     ---       #800
      010005B0H   LINE      CODE     ---       #801
      010005B2H   LINE      CODE     ---       #802
      010005B4H   LINE      CODE     ---       #803
      010005B4H   LINE      CODE     ---       #804
      010005D0H   LINE      CODE     ---       #805
      010005D0H   LINE      CODE     ---       #806
      010005D6H   LINE      CODE     ---       #807
      010005D6H   LINE      CODE     ---       #808
      010005D9H   LINE      CODE     ---       #809
      010005E9H   LINE      CODE     ---       #814
      010005EBH   LINE      CODE     ---       #815
      010005EBH   LINE      CODE     ---       #816
      010005EDH   LINE      CODE     ---       #818
      010005EDH   LINE      CODE     ---       #819
      010005F0H   LINE      CODE     ---       #820
      010005F7H   LINE      CODE     ---       #821
      010005F7H   LINE      CODE     ---       #822
      01000603H   LINE      CODE     ---       #896
      0100060AH   LINE      CODE     ---       #899
      0100060CH   LINE      CODE     ---       #900
      0100060CH   LINE      CODE     ---       #901
      0100060FH   LINE      CODE     ---       #902
      01000610H   LINE      CODE     ---       #904
      01000610H   LINE      CODE     ---       #905
      01000613H   LINE      CODE     ---       #906
      01000613H   LINE      CODE     ---       #907
      ---         BLOCKEND  ---      ---       LVL=0

      010009F3H   BLOCK     CODE     ---       LVL=0
      010009F3H   BLOCK     CODE     NEAR LAB  LVL=1
      00000006H   SYMBOL    DATA     BYTE      i
      00000007H   SYMBOL    DATA     BYTE      ch_idx
      ---         BLOCKEND  ---      ---       LVL=1
      010009F3H   LINE      CODE     ---       #1126
      010009F3H   LINE      CODE     ---       #1127
      010009F3H   LINE      CODE     ---       #1130
      010009F6H   LINE      CODE     ---       #1135
      010009FAH   LINE      CODE     ---       #1136
      010009FCH   LINE      CODE     ---       #1137
      010009FDH   LINE      CODE     ---       #1138
      010009FDH   LINE      CODE     ---       #1149
      01000A18H   LINE      CODE     ---       #1153
      01000A1CH   LINE      CODE     ---       #1156
      01000A1FH   LINE      CODE     ---       #1157
      01000A22H   LINE      CODE     ---       #1163
      01000A25H   LINE      CODE     ---       #1164
      01000A28H   LINE      CODE     ---       #1166
      01000A2AH   LINE      CODE     ---       #1168
      01000A2DH   LINE      CODE     ---       #1171
      01000A30H   LINE      CODE     ---       #1176
      01000A33H   LINE      CODE     ---       #1177
      01000A39H   LINE      CODE     ---       #1225
      01000A3BH   LINE      CODE     ---       #1227
      01000A3DH   LINE      CODE     ---       #1229
      01000A42H   LINE      CODE     ---       #1230
      01000A45H   LINE      CODE     ---       #1232
      01000A47H   LINE      CODE     ---       #1251
      01000A4AH   LINE      CODE     ---       #1252
      01000A4EH   LINE      CODE     ---       #1258
      01000A50H   LINE      CODE     ---       #1259
      01000A54H   LINE      CODE     ---       #1262
      ---         BLOCKEND  ---      ---       LVL=0

LX51 LINKER/LOCATER V4.66.66.0                                                        08/04/2020  11:17:01  PAGE 43


      01000BECH   BLOCK     CODE     ---       LVL=0
      01000BECH   LINE      CODE     ---       #1264
      01000BECH   LINE      CODE     ---       #1265
      01000BECH   LINE      CODE     ---       #1266
      01000BF5H   LINE      CODE     ---       #1267
      01000BF5H   LINE      CODE     ---       #1268
      01000BF5H   LINE      CODE     ---       #1269
      01000BF8H   LINE      CODE     ---       #1270
      01000BFAH   LINE      CODE     ---       #1271
      01000BFAH   LINE      CODE     ---       #1272
      01000BFDH   LINE      CODE     ---       #1273
      01000BFDH   LINE      CODE     ---       #1274
      01000BFFH   LINE      CODE     ---       #1280
      01000C02H   LINE      CODE     ---       #1281
      01000C04H   LINE      CODE     ---       #1283
      01000C0AH   LINE      CODE     ---       #1284
      01000C0AH   LINE      CODE     ---       #1285
      01000C0DH   LINE      CODE     ---       #1286
      01000C0DH   LINE      CODE     ---       #1289
      01000C10H   LINE      CODE     ---       #1325
      01000C10H   LINE      CODE     ---       #1326
      01000C19H   LINE      CODE     ---       #1327
      01000C19H   LINE      CODE     ---       #1328
      01000C1CH   LINE      CODE     ---       #1329
      01000C1FH   LINE      CODE     ---       #1330
      01000C22H   LINE      CODE     ---       #1331
      01000C22H   LINE      CODE     ---       #1332
      01000C22H   LINE      CODE     ---       #1333
      01000C22H   LINE      CODE     ---       #1334
      01000C22H   LINE      CODE     ---       #1335
      01000C22H   LINE      CODE     ---       #1342
      ---         BLOCKEND  ---      ---       LVL=0

      010008F5H   BLOCK     CODE     ---       LVL=0
      010008F5H   BLOCK     CODE     NEAR LAB  LVL=1
      00000023H   SYMBOL    DATA     WORD      KeyBak
      00000020H.0 SYMBOL    BIT      BIT       LongFlag
      00000025H   SYMBOL    DATA     BYTE      KeyidxBak
      00000007H   SYMBOL    DATA     BYTE      i
      ---         BLOCKEND  ---      ---       LVL=1
      010008F5H   LINE      CODE     ---       #1586
      010008F5H   LINE      CODE     ---       #1587
      010008F5H   LINE      CODE     ---       #1597
      010008FAH   LINE      CODE     ---       #1598
      010008FEH   LINE      CODE     ---       #1599
      010008FEH   LINE      CODE     ---       #1618
      01000904H   LINE      CODE     ---       #1619
      01000904H   LINE      CODE     ---       #1620
      01000906H   LINE      CODE     ---       #1621
      01000906H   LINE      CODE     ---       #1622
      01000913H   LINE      CODE     ---       #1623
      01000913H   LINE      CODE     ---       #1624
      01000915H   LINE      CODE     ---       #1625
      0100091FH   LINE      CODE     ---       #1626
      01000921H   LINE      CODE     ---       #1627
      01000921H   LINE      CODE     ---       #1628
      01000925H   LINE      CODE     ---       #1629
      0100092BH   LINE      CODE     ---       #1630
      0100092DH   LINE      CODE     ---       #1631
      01000933H   LINE      CODE     ---       #1632
      01000936H   LINE      CODE     ---       #1633
      01000936H   LINE      CODE     ---       #1635
      01000937H   LINE      CODE     ---       #1636
      0100093DH   LINE      CODE     ---       #1637
      0100093DH   LINE      CODE     ---       #1691
LX51 LINKER/LOCATER V4.66.66.0                                                        08/04/2020  11:17:01  PAGE 44


      0100094BH   LINE      CODE     ---       #1692
      0100094BH   LINE      CODE     ---       #1693
      01000951H   LINE      CODE     ---       #1694
      01000951H   LINE      CODE     ---       #1695
      01000954H   LINE      CODE     ---       #1696
      01000954H   LINE      CODE     ---       #1697
      01000956H   LINE      CODE     ---       #1698
      0100095AH   LINE      CODE     ---       #1699
      0100095CH   LINE      CODE     ---       #1701
      0100095CH   LINE      CODE     ---       #1702
      01000965H   LINE      CODE     ---       #1703
      01000965H   LINE      CODE     ---       #1704
      0100096BH   LINE      CODE     ---       #1705
      0100096BH   LINE      CODE     ---       #1706
      0100096CH   LINE      CODE     ---       #1708
      0100096CH   LINE      CODE     ---       #1709
      01000971H   LINE      CODE     ---       #1710
      01000971H   LINE      CODE     ---       #1711
      01000973H   LINE      CODE     ---       #1712
      01000975H   LINE      CODE     ---       #1714
      01000975H   LINE      CODE     ---       #1715
      0100097CH   LINE      CODE     ---       #1716
      0100097CH   LINE      CODE     ---       #1717
      0100097FH   LINE      CODE     ---       #1718
      0100097FH   LINE      CODE     ---       #1720
      0100097FH   LINE      CODE     ---       #1830
      ---         BLOCKEND  ---      ---       LVL=0

      ---         MODULE    ---      ---       TS_SEVICE
      01000D8DH   PUBLIC    CONST    ---       pXSFR
      01000046H   PUBLIC    CODE     ---       _TS_AreaConfirmTimerSet
      01000C82H   PUBLIC    CODE     ---       _TS_AreaDeviateDetection
      00000020H.4 PUBLIC    BIT      BIT       ?_TS_GetDataArea?BIT
      01000A55H   PUBLIC    CODE     ---       _TS_GetDataArea
      01000B63H   PUBLIC    CODE     ---       TS_ScanStart
      01000C25H   PUBLIC    CODE     ---       TS_IO_init
      000000E3H   SFRSYM    DATA     BYTE      LXDAT
      000000C4H   SFRSYM    DATA     BYTE      TKCHS
      00000080H   SFRSYM    DATA     BYTE      P0
      000000C1H   SFRSYM    DATA     BYTE      TKCON
      00000090H   SFRSYM    DATA     BYTE      P1
      000000A0H   SFRSYM    DATA     BYTE      P2
      000000B0H   SFRSYM    DATA     BYTE      P3
      000000D0H.6 SFRSYM    DATA     BIT       AC
      000000A8H.7 SFRSYM    DATA     BIT       EA
      000000E1H   SFRSYM    DATA     BYTE      LXCON
      000000C8H   SFRSYM    DATA     BIT       T2P0
      000000C8H.1 SFRSYM    DATA     BIT       T2P1
      000000F1H   SFRSYM    DATA     BYTE      RTCON
      000000C8H.4 SFRSYM    DATA     BIT       T2R0
      000000D8H   SFRSYM    DATA     BYTE      PWMEN
      000000CFH   SFRSYM    DATA     BYTE      TKMSH
      00000086H   SFRSYM    DATA     BYTE      PWCON
      000000C8H.5 SFRSYM    DATA     BIT       T2R1
      000000CEH   SFRSYM    DATA     BYTE      TKMSL
      00000083H   SFRSYM    DATA     BYTE      DP0H
      000000A8H   SFRSYM    DATA     BYTE      IE
      00000085H   SFRSYM    DATA     BYTE      DP1H
      000000E9H   SFRSYM    DATA     BYTE      RTCSS
      00000082H   SFRSYM    DATA     BYTE      DP0L
      000000CBH   SFRSYM    DATA     BYTE      T2CH
      000000B3H   SFRSYM    DATA     BYTE      I2CADM
      00000084H   SFRSYM    DATA     BYTE      DP1L
      000000C8H.3 SFRSYM    DATA     BIT       T2IE
      000000C3H   SFRSYM    DATA     BYTE      TKMTS
LX51 LINKER/LOCATER V4.66.66.0                                                        08/04/2020  11:17:01  PAGE 45


      000000CAH   SFRSYM    DATA     BYTE      T2CL
      000000B2H   SFRSYM    DATA     BYTE      I2CADR
      000000B8H   SFRSYM    DATA     BYTE      IP
      000000B7H   SFRSYM    DATA     BYTE      I2CFLG
      000000B5H   SFRSYM    DATA     BYTE      I2CDAT
      000000EDH   SFRSYM    DATA     BYTE      RTMSS
      000000D0H.7 SFRSYM    DATA     BIT       CY
      000000BBH   SFRSYM    DATA     BYTE      ADCFGH
      000000DAH   SFRSYM    DATA     BYTE      PWMCMAX
      000000B1H   SFRSYM    DATA     BYTE      I2CCON
      000000DEH   SFRSYM    DATA     BYTE      PWMDIVH
      000000BAH   SFRSYM    DATA     BYTE      ADCFGL
      00000081H   SFRSYM    DATA     BYTE      SP
      000000F9H   SFRSYM    DATA     BYTE      EPIE
      000000D0H.2 SFRSYM    DATA     BIT       OV
      000000FAH   SFRSYM    DATA     BYTE      EPIF
      000000DDH   SFRSYM    DATA     BYTE      PWMDIVL
      000000B6H   SFRSYM    DATA     BYTE      I2CSTA
      000000A5H   SFRSYM    DATA     BYTE      IHCFGH
      000000E8H   SFRSYM    DATA     BYTE      EXIE
      000000D1H   SFRSYM    DATA     BYTE      PWMDUTH
      000000C7H   SFRSYM    DATA     BYTE      TKIF
      000000A7H   SFRSYM    DATA     BYTE      ILCFGH
      000000A4H   SFRSYM    DATA     BYTE      IHCFGL
      0000008FH   SFRSYM    DATA     BYTE      IT0CON
      00000080H   SFRSYM    DATA     BIT       P00
      000000ECH   SFRSYM    DATA     BYTE      RTAH
      000000DFH   SFRSYM    DATA     BYTE      PWMDUTL
      0000008EH   SFRSYM    DATA     BYTE      IT1CON
      00000090H   SFRSYM    DATA     BIT       P10
      00000080H.1 SFRSYM    DATA     BIT       P01
      0000009DH   SFRSYM    DATA     BYTE      S1RELH
      00000087H   SFRSYM    DATA     BYTE      PCON
      000000A0H   SFRSYM    DATA     BIT       P20
      00000090H.1 SFRSYM    DATA     BIT       P11
      00000080H.2 SFRSYM    DATA     BIT       P02
      000000E8H   SFRSYM    DATA     BIT       INT2EN
      000000F4H   SFRSYM    DATA     BYTE      RTCH
      000000B0H   SFRSYM    DATA     BIT       P30
      000000A0H.1 SFRSYM    DATA     BIT       P21
      00000090H.2 SFRSYM    DATA     BIT       P12
      00000080H.3 SFRSYM    DATA     BIT       P03
      000000E8H.1 SFRSYM    DATA     BIT       INT3EN
      000000A6H   SFRSYM    DATA     BYTE      ILCFGL
      000000B0H.1 SFRSYM    DATA     BIT       P31
      000000A0H.2 SFRSYM    DATA     BIT       P22
      00000090H.3 SFRSYM    DATA     BIT       P13
      00000080H.4 SFRSYM    DATA     BIT       P04
      000000E8H.2 SFRSYM    DATA     BIT       INT4EN
      000000B0H.2 SFRSYM    DATA     BIT       P32
      000000A0H.3 SFRSYM    DATA     BIT       P23
      00000090H.4 SFRSYM    DATA     BIT       P14
      00000080H.5 SFRSYM    DATA     BIT       P05
      000000E8H.3 SFRSYM    DATA     BIT       INT5EN
      000000EBH   SFRSYM    DATA     BYTE      RTAM
      0000009CH   SFRSYM    DATA     BYTE      S1RELL
      00000089H   SFRSYM    DATA     BYTE      TMOD
      00000088H   SFRSYM    DATA     BYTE      TCON
      000000B0H.3 SFRSYM    DATA     BIT       P33
      000000A0H.4 SFRSYM    DATA     BIT       P24
      00000090H.5 SFRSYM    DATA     BIT       P15
      00000080H.6 SFRSYM    DATA     BIT       P06
      000000E8H.4 SFRSYM    DATA     BIT       INT6EN
      000000B0H.4 SFRSYM    DATA     BIT       P34
      000000A0H.5 SFRSYM    DATA     BIT       P25
LX51 LINKER/LOCATER V4.66.66.0                                                        08/04/2020  11:17:01  PAGE 46


      00000090H.6 SFRSYM    DATA     BIT       P16
      00000080H.7 SFRSYM    DATA     BIT       P07
      000000E8H.5 SFRSYM    DATA     BIT       INT7EN
      000000C8H.2 SFRSYM    DATA     BIT       UCKS
      000000F8H   SFRSYM    DATA     BYTE      EXIP
      000000F3H   SFRSYM    DATA     BYTE      RTCM
      000000B0H.5 SFRSYM    DATA     BIT       P35
      000000A0H.6 SFRSYM    DATA     BIT       P26
      00000090H.7 SFRSYM    DATA     BIT       P17
      000000E8H.6 SFRSYM    DATA     BIT       INT8EN
      000000B0H.6 SFRSYM    DATA     BIT       P36
      000000E8H.7 SFRSYM    DATA     BIT       INT9EN
      000000B0H.7 SFRSYM    DATA     BIT       P37
      000000EAH   SFRSYM    DATA     BYTE      RTAS
      00000095H   SFRSYM    DATA     BYTE      RCTAGH
      000000F2H   SFRSYM    DATA     BYTE      RTCS
      00000088H.1 SFRSYM    DATA     BIT       IE0
      00000088H.3 SFRSYM    DATA     BIT       IE1
      00000094H   SFRSYM    DATA     BYTE      RCTAGL
      000000F7H   SFRSYM    DATA     BYTE      RSTF
      000000F0H   SFRSYM    DATA     BYTE      B
      000000DCH   SFRSYM    DATA     BYTE      PWMCFG
      000000D2H   SFRSYM    DATA     BYTE      PWMAIF
      000000E0H   SFRSYM    DATA     BYTE      ACC
      000000D3H   SFRSYM    DATA     BYTE      PWMBIF
      0000009FH   SFRSYM    DATA     BYTE      RCMSHH
      000000A8H.4 SFRSYM    DATA     BIT       ES0
      000000EFH   SFRSYM    DATA     BYTE      LVDCON
      000000D4H   SFRSYM    DATA     BYTE      PWMCIF
      000000A8H.1 SFRSYM    DATA     BIT       ET0
      000000A8H.6 SFRSYM    DATA     BIT       ES1
      000000A8H.3 SFRSYM    DATA     BIT       ET1
      00000088H.5 SFRSYM    DATA     BIT       TF0
      000000FDH   SFRSYM    DATA     BYTE      IDLSTH
      000000ADH   SFRSYM    DATA     BYTE      PLLCON
      000000A8H.5 SFRSYM    DATA     BIT       ET2
      00000098H   SFRSYM    DATA     BIT       RI0
      00000088H.7 SFRSYM    DATA     BIT       TF1
      000000D6H   SFRSYM    DATA     BYTE      TKMINF
      0000009EH   SFRSYM    DATA     BYTE      RCMSHL
      00000097H   SFRSYM    DATA     BYTE      RCMSLH
      000000C8H.7 SFRSYM    DATA     BIT       TF2
      00000098H.2 SFRSYM    DATA     BIT       RB8
      0000008CH   SFRSYM    DATA     BYTE      TH0
      000000A8H   SFRSYM    DATA     BIT       EX0
      00000098H.1 SFRSYM    DATA     BIT       TI0
      00000088H   SFRSYM    DATA     BIT       IT0
      000000D5H   SFRSYM    DATA     BYTE      TKMAXF
      0000008DH   SFRSYM    DATA     BYTE      TH1
      000000A8H.2 SFRSYM    DATA     BIT       EX1
      00000098H.3 SFRSYM    DATA     BIT       TB8
      00000088H.2 SFRSYM    DATA     BIT       IT1
      000000FCH   SFRSYM    DATA     BYTE      IDLSTL
      000000CDH   SFRSYM    DATA     BYTE      TH2
      000000D0H   SFRSYM    DATA     BIT       P
      00000096H   SFRSYM    DATA     BYTE      RCMSLL
      00000098H.7 SFRSYM    DATA     BIT       SM0
      0000008AH   SFRSYM    DATA     BYTE      TL0
      00000098H.6 SFRSYM    DATA     BIT       SM1
      000000E5H   SFRSYM    DATA     BYTE      LXDIVH
      0000008BH   SFRSYM    DATA     BYTE      TL1
      00000098H.5 SFRSYM    DATA     BIT       SM2
      000000CCH   SFRSYM    DATA     BYTE      TL2
      000000B8H.4 SFRSYM    DATA     BIT       PS0
      000000B8H.1 SFRSYM    DATA     BIT       PT0
LX51 LINKER/LOCATER V4.66.66.0                                                        08/04/2020  11:17:01  PAGE 47


      000000B8H.6 SFRSYM    DATA     BIT       PS1
      000000B4H   SFRSYM    DATA     BYTE      I2CCR
      000000B8H.3 SFRSYM    DATA     BIT       PT1
      000000D0H.3 SFRSYM    DATA     BIT       RS0
      000000E4H   SFRSYM    DATA     BYTE      LXDIVL
      000000BDH   SFRSYM    DATA     BYTE      ADCDH
      000000B8H.5 SFRSYM    DATA     BIT       PT2
      00000088H.4 SFRSYM    DATA     BIT       TR0
      000000D0H.4 SFRSYM    DATA     BIT       RS1
      000000DBH   SFRSYM    DATA     BYTE      PWMCON
      00000088H.6 SFRSYM    DATA     BIT       TR1
      000000ACH   SFRSYM    DATA     BYTE      WDVTHH
      000000C8H.6 SFRSYM    DATA     BIT       TR2
      000000B8H   SFRSYM    DATA     BIT       PX0
      000000B8H.2 SFRSYM    DATA     BIT       PX1
      000000BCH   SFRSYM    DATA     BYTE      ADCDL
      000000ABH   SFRSYM    DATA     BYTE      WDVTHL
      000000D9H   SFRSYM    DATA     BYTE      PWMUPD
      00000099H   SFRSYM    DATA     BYTE      S0BUF
      0000009BH   SFRSYM    DATA     BYTE      S1BUF
      00000098H   SFRSYM    DATA     BYTE      S0CON
      00000098H.4 SFRSYM    DATA     BIT       REN
      0000009AH   SFRSYM    DATA     BYTE      S1CON
      000000B9H   SFRSYM    DATA     BYTE      ADCON
      000000D0H.1 SFRSYM    DATA     BIT       DPS
      000000C9H   SFRSYM    DATA     BYTE      T2MOD
      000000C8H   SFRSYM    DATA     BYTE      T2CON
      000000FFH   SFRSYM    DATA     BYTE      STPSTH
      000000BFH   SFRSYM    DATA     BYTE      CKMIF
      000000AFH   SFRSYM    DATA     BYTE      TFCFG
      000000FEH   SFRSYM    DATA     BYTE      STPSTL
      000000C6H   SFRSYM    DATA     BYTE      ATKCH
      000000A1H   SFRSYM    DATA     BYTE      CKCON
      000000C5H   SFRSYM    DATA     BYTE      ATKCL
      000000C2H   SFRSYM    DATA     BYTE      TKCFG
      00000093H   SFRSYM    DATA     BYTE      VCKDH
      000000A3H   SFRSYM    DATA     BYTE      CKDIV
      000000A2H   SFRSYM    DATA     BYTE      CKSEL
      000000D0H.5 SFRSYM    DATA     BIT       F0
      000000E2H   SFRSYM    DATA     BYTE      LXCFG
      000000AAH   SFRSYM    DATA     BYTE      WDFLG
      00000092H   SFRSYM    DATA     BYTE      VCKDL
      000000FBH   SFRSYM    DATA     BYTE      EPCON
      000000F6H   SFRSYM    DATA     BYTE      RTCDH
      00000091H   SFRSYM    DATA     BYTE      RCCON
      000000E7H   SFRSYM    DATA     BYTE      ATKNH
      000000EEH   SFRSYM    DATA     BYTE      RTCIF
      000000C0H   SFRSYM    DATA     BYTE      INDEX
      000000BEH   SFRSYM    DATA     BYTE      CKMON
      000000F5H   SFRSYM    DATA     BYTE      RTCDL
      000000D0H   SFRSYM    DATA     BYTE      PSW
      000000E6H   SFRSYM    DATA     BYTE      ATKNL
      000000A9H   SFRSYM    DATA     BYTE      WDCON

      01000404H   BLOCK     CODE     ---       LVL=0
      ---         BLOCKEND  ---      ---       LVL=0

      01000C25H   BLOCK     CODE     ---       LVL=0
      01000C25H   BLOCK     CODE     NEAR LAB  LVL=1
      00000007H   SYMBOL    DATA     BYTE      i
      00000001H   SYMBOL    DATA     ---       pPinS
      ---         BLOCKEND  ---      ---       LVL=1
      01000C25H   LINE      CODE     ---       #37
      01000C25H   LINE      CODE     ---       #38
      01000C25H   LINE      CODE     ---       #41
LX51 LINKER/LOCATER V4.66.66.0                                                        08/04/2020  11:17:01  PAGE 48


      01000C2BH   LINE      CODE     ---       #42
      01000C36H   LINE      CODE     ---       #43
      01000C36H   LINE      CODE     ---       #44
      01000C4BH   LINE      CODE     ---       #45
      01000C50H   LINE      CODE     ---       #46
      01000C53H   LINE      CODE     ---       #47
      ---         BLOCKEND  ---      ---       LVL=0

      01000B63H   BLOCK     CODE     ---       LVL=0
      01000B63H   BLOCK     CODE     NEAR LAB  LVL=1
      00000007H   SYMBOL    DATA     BYTE      i
      00000006H   SYMBOL    DATA     BYTE      j
      ---         BLOCKEND  ---      ---       LVL=1
      01000B63H   LINE      CODE     ---       #48
      01000B63H   LINE      CODE     ---       #49
      01000B63H   LINE      CODE     ---       #51
      01000B6BH   LINE      CODE     ---       #52
      01000B6BH   LINE      CODE     ---       #53
      01000B82H   LINE      CODE     ---       #54
      01000B82H   LINE      CODE     ---       #55
      01000B84H   LINE      CODE     ---       #56
      01000B87H   LINE      CODE     ---       #57
      01000B90H   LINE      CODE     ---       #58
      01000B90H   LINE      CODE     ---       #59
      01000B92H   LINE      CODE     ---       #60
      01000B95H   LINE      CODE     ---       #61
      01000B98H   LINE      CODE     ---       #62
      01000B98H   LINE      CODE     ---       #63
      01000B98H   LINE      CODE     ---       #64
      01000B9AH   LINE      CODE     ---       #65
      01000BA6H   LINE      CODE     ---       #66
      01000BA9H   LINE      CODE     ---       #67
      01000BACH   LINE      CODE     ---       #68
      ---         BLOCKEND  ---      ---       LVL=0

      01000A55H   BLOCK     CODE     ---       LVL=0
      00000001H   SYMBOL    DATA     BYTE      ts_ch
      00000004H   SYMBOL    DATA     WORD      ts_data
      00000018H   SYMBOL    DATA     INT       NoiseThd
      00000020H.4 SYMBOL    BIT      BIT       key_pressed_flag
      01000A5BH   BLOCK     CODE     NEAR LAB  LVL=1
      00000002H   SYMBOL    DATA     INT       Delta
      00000006H   SYMBOL    DATA     INT       FingerThd
      ---         BLOCKEND  ---      ---       LVL=1
      01000A55H   LINE      CODE     ---       #69
      01000A5BH   LINE      CODE     ---       #70
      01000A5BH   LINE      CODE     ---       #74
      01000A6BH   LINE      CODE     ---       #75
      01000A72H   LINE      CODE     ---       #77
      01000A75H   LINE      CODE     ---       #78
      01000A75H   LINE      CODE     ---       #79
      01000A80H   LINE      CODE     ---       #80
      01000A80H   LINE      CODE     ---       #82
      01000A88H   LINE      CODE     ---       #83
      01000A96H   LINE      CODE     ---       #84
      01000AA1H   LINE      CODE     ---       #85
      01000AB3H   LINE      CODE     ---       #86
      01000AB3H   LINE      CODE     ---       #87
      ---         BLOCKEND  ---      ---       LVL=0

      01000C82H   BLOCK     CODE     ---       LVL=0
      00000006H   SYMBOL    DATA     WORD      cmp_data
      00000004H   SYMBOL    DATA     WORD      real_data
      00000002H   SYMBOL    DATA     INT       range
      01000C82H   BLOCK     CODE     NEAR LAB  LVL=1
LX51 LINKER/LOCATER V4.66.66.0                                                        08/04/2020  11:17:01  PAGE 49


      00000006H   SYMBOL    DATA     INT       Delta
      ---         BLOCKEND  ---      ---       LVL=1
      01000C82H   LINE      CODE     ---       #88
      01000C82H   LINE      CODE     ---       #89
      01000C82H   LINE      CODE     ---       #91
      01000C89H   LINE      CODE     ---       #92
      01000CAAH   LINE      CODE     ---       #93
      01000CAAH   LINE      CODE     ---       #94
      01000CADH   LINE      CODE     ---       #95
      01000CADH   LINE      CODE     ---       #97
      01000CADH   LINE      CODE     ---       #98
      01000CAFH   LINE      CODE     ---       #99
      01000CAFH   LINE      CODE     ---       #100
      ---         BLOCKEND  ---      ---       LVL=0

      01000046H   BLOCK     CODE     ---       LVL=0
      00000007H   SYMBOL    DATA     BYTE      ts_ch
      00000005H   SYMBOL    DATA     BYTE      area
      01000046H   LINE      CODE     ---       #113
      01000046H   LINE      CODE     ---       #114
      01000046H   LINE      CODE     ---       #115
      01000058H   LINE      CODE     ---       #116
      ---         BLOCKEND  ---      ---       LVL=0
      00000001H   SYMBOL    DATA     BYTE      Slider_Cnt
      00000007H   SYMBOL    DATA     BYTE      i
      00000006H   SYMBOL    DATA     BYTE      j
      00000006H   SYMBOL    DATA     WORD      CalcTemp3
      00000005H   SYMBOL    DATA     BYTE      DeltaRate
      00000004H   SYMBOL    DATA     INT       PosOffset
      00000006H   SYMBOL    DATA     WORD      CalcTemp3
      00000005H   SYMBOL    DATA     BYTE      DeltaRate
      00000006H   SYMBOL    DATA     INT       PosOffset

      ---         MODULE    ---      ---       ?C_STARTUP
      01000000H   PUBLIC    CODE     ---       ?C_STARTUP
      000000E0H   SYMBOL    DATA     ---       ACC
      000000F0H   SYMBOL    DATA     ---       B
      00000083H   SYMBOL    DATA     ---       DPH
      00000082H   SYMBOL    DATA     ---       DPL
      00000000H   SYMBOL    NUMBER   ---       IBPSTACK
      00000100H   SYMBOL    NUMBER   ---       IBPSTACKTOP
      00000080H   SYMBOL    NUMBER   ---       IDATALEN
      0100086CH   SYMBOL    CODE     ---       IDATALOOP
      00000000H   SYMBOL    NUMBER   ---       PBPSTACK
      00000100H   SYMBOL    NUMBER   ---       PBPSTACKTOP
      00000000H   SYMBOL    NUMBER   ---       PDATALEN
      00000000H   SYMBOL    NUMBER   ---       PDATASTART
      00000000H   SYMBOL    NUMBER   ---       PPAGE
      00000000H   SYMBOL    NUMBER   ---       PPAGEENABLE
      000000A0H   SYMBOL    DATA     ---       PPAGE_SFR
      00000081H   SYMBOL    DATA     ---       SP
      01000869H   SYMBOL    CODE     ---       STARTUP1
      00000000H   SYMBOL    NUMBER   ---       XBPSTACK
      00000000H   SYMBOL    NUMBER   ---       XBPSTACKTOP
      00000000H   SYMBOL    NUMBER   ---       XDATALEN
      00000000H   SYMBOL    NUMBER   ---       XDATASTART
      01000000H   LINE      CODE     ---       #126
      01000869H   LINE      CODE     ---       #133
      0100086BH   LINE      CODE     ---       #134
      0100086CH   LINE      CODE     ---       #135
      0100086DH   LINE      CODE     ---       #136
      0100086FH   LINE      CODE     ---       #185
      01000872H   LINE      CODE     ---       #196

      ---         MODULE    ---      ---       ?C_INIT
LX51 LINKER/LOCATER V4.66.66.0                                                        08/04/2020  11:17:01  PAGE 50


      010008B0H   PUBLIC    CODE     ---       ?C_START

      ---         MODULE    ---      ---       ?C?CLDOPTR
      0100006EH   PUBLIC    CODE     ---       ?C?CLDOPTR

      ---         MODULE    ---      ---       ?C?CSTPTR
      0100009BH   PUBLIC    CODE     ---       ?C?CSTPTR

      ---         MODULE    ---      ---       ?C?CSTOPTR
      010000ADH   PUBLIC    CODE     ---       ?C?CSTOPTR

      ---         MODULE    ---      ---       ?C?IMUL
      010000CFH   PUBLIC    CODE     ---       ?C?IMUL

      ---         MODULE    ---      ---       ?C?UIDIV
      010000E1H   PUBLIC    CODE     ---       ?C?UIDIV

      ---         MODULE    ---      ---       ?C?SIDIV
      01000136H   PUBLIC    CODE     ---       ?C?SIDIV

      ---         MODULE    ---      ---       ?C?IILDX
      0100016CH   PUBLIC    CODE     ---       ?C?IILDX

      ---         MODULE    ---      ---       ?C?ULDIV
      010001BEH   PUBLIC    CODE     ---       ?C?ULDIV

      ---         MODULE    ---      ---       ?C?LSTXDATA
      01000250H   PUBLIC    CODE     ---       ?C?LSTXDATA

      ---         MODULE    ---      ---       ?C?OFFXADD
      0100025CH   PUBLIC    CODE     ---       ?C?OFFXADD

      ---         MODULE    ---      ---       ?C?PLDCODE
      01000268H   PUBLIC    CODE     ---       ?C?PLDCODE

      ---         MODULE    ---      ---       ?C?LIMUL
      01000274H   PUBLIC    CODE     ---       ?C?LIMUL

Program Size: data=52.5 xdata=138 const=121 code=3466
LX51 RUN COMPLETE.  0 WARNING(S),  0 ERROR(S)
